c__builtin__
set
p0
((lp1
Vcircle_616_img.jpg
p2
aVcircle_517_img.jpg
p3
aVcircle_628_img.jpg
p4
aVcircle_614_img.jpg
p5
aVcircle_630_img.jpg
p6
aVcircle_629_img.jpg
p7
aVcircle_627_img.jpg
p8
aVcircle_617_img.jpg
p9
aVcircle_472_img.jpg
p10
aVcircle_636_img.jpg
p11
aVcircle_632_img.jpg
p12
aVcircle_641_img.jpg
p13
aVcircle_640_img.jpg
p14
aVcircle_638_img.jpg
p15
aVcircle_637_img.jpg
p16
aVcircle_515_img.jpg
p17
aVcircle_591_img.jpg
p18
aVcircle_634_img.jpg
p19
aVcircle_633_img.jpg
p20
aVcircle_615_img.jpg
p21
aVcircle_618_img.jpg
p22
aVcircle_518_img.jpg
p23
aVcircle_639_img.jpg
p24
aVcircle_635_img.jpg
p25
atp26
Rp27
.