(lp1
(icapFunc
capDat
p2
(dp3
S'b'
F0.57470393777345641
sS'g'
F0.52822265435099658
sS'h'
F0.61328543398515623
sS'l'
F0.57470393777345641
sS's'
F0.11898949329733147
sS'r'
F0.50632020742181172
sS'fname'
p4
S'circle_0_img.jpg'
p5
sba(icapFunc
capDat
p6
(dp7
S'b'
F0.3264644304002593
sS'g'
F0.54427710257656781
sS'h'
F0.1201739431464333
sS'l'
F0.62854415815913145
sS's'
F0.48060223587726547
sS'r'
F0.62854415815913145
sg4
S'circle_100_img.jpg'
p8
sba(icapFunc
capDat
p9
(dp10
S'b'
F0.41558385999027708
sS'g'
F0.37338616107600064
sS'h'
F0.62157364766696166
sS'l'
F0.41558385999027708
sS's'
F0.1392000524064872
sS'r'
F0.35773456490034028
sg4
S'circle_101_img.jpg'
p11
sba(icapFunc
capDat
p12
(dp13
S'b'
F0.48502965483714144
sS'g'
F0.59107535245503151
sS'h'
F0.14526285507277245
sS'l'
F0.60670069680764871
sS's'
F0.20054541326673708
sS'r'
F0.60670069680764871
sg4
S'circle_102_img.jpg'
p14
sba(icapFunc
capDat
p15
(dp16
S'b'
F0.45943898881866796
sS'g'
F0.48440252795333011
sS'h'
F0.20581629341123028
sS'l'
F0.48440252795333011
sS's'
F0.051534700366112185
sS'r'
F0.47853864851725814
sg4
S'circle_103_img.jpg'
p17
sba(icapFunc
capDat
p18
(dp19
S'b'
F0.29470912331874899
sS'g'
F0.24880181494085238
sS'h'
F0.9747444166416156
sS'l'
F0.55175336250202556
sS's'
F0.54907059594052043
sS'r'
F0.55175336250202556
sg4
S'circle_104_img.jpg'
p20
sba(icapFunc
capDat
p21
(dp22
S'b'
F0.51706465726786588
sS'g'
F0.538182142278399
sS'h'
F0.23042450658399605
sS'l'
F0.538182142278399
sS's'
F0.039238546491215887
sS'r'
F0.53010371090584996
sg4
S'circle_105_img.jpg'
p23
sba(icapFunc
capDat
p24
(dp25
S'b'
F0.43969567331064657
sS'g'
F0.40972905525846703
sS'h'
F0.61919660697941248
sS'l'
F0.43969567331064657
sS's'
F0.095295061993202451
sS'r'
F0.39779484686436561
sg4
S'circle_106_img.jpg'
p26
sba(icapFunc
capDat
p27
(dp28
S'b'
F0.53601166747690809
sS'g'
F0.59601847350510451
sS'h'
F0.18175345168718163
sS'l'
F0.59601847350510451
sS's'
F0.10067943980881071
sS'r'
F0.59058661481121366
sg4
S'circle_107_img.jpg'
p29
sba(icapFunc
capDat
p30
(dp31
S'b'
F0.6218292011019283
sS'g'
F0.55455161238048944
sS'h'
F0.62236074270557007
sS'l'
F0.6218292011019283
sS's'
F0.14736893676504462
sS'r'
F0.53019089288608001
sg4
S'circle_108_img.jpg'
p32
sba(icapFunc
capDat
p33
(dp34
S'b'
F0.78257170636849782
sS'g'
F0.70671074380165289
sS'h'
F0.61859977989505488
sS'l'
F0.78257170636849782
sS's'
F0.13622570792566133
sS'r'
F0.67596532166585643
sg4
S'circle_109_img.jpg'
p35
sba(icapFunc
capDat
p36
(dp37
S'b'
F0.37275320045373517
sS'g'
F0.34414713984767464
sS'h'
F0.61078894319719412
sS'l'
F0.37275320045373517
sS's'
F0.11544868840913633
sS'r'
F0.32971933236104356
sg4
S'circle_10_img.jpg'
p38
sba(icapFunc
capDat
p39
(dp40
S'b'
F0.43945065629557606
sS'g'
F0.44255355695997411
sS'h'
F0.079260215908339551
sS'l'
F0.44597536865986065
sS's'
F0.014630207905631892
sS'r'
F0.44597536865986065
sg4
S'circle_110_img.jpg'
p41
sba(icapFunc
capDat
p42
(dp43
S'b'
F0.78200550964187321
sS'g'
F0.7384407713498623
sS'h'
F0.61668559067202777
sS'l'
F0.78200550964187321
sS's'
F0.079571366641827609
sS'r'
F0.71978026251823046
sg4
S'circle_111_img.jpg'
p44
sba(icapFunc
capDat
p45
(dp46
S'b'
F0.25615815913142115
sS'g'
F0.43821293145357321
sS'h'
F0.12582644091244274
sS'l'
F0.49730351644790149
sS's'
F0.48490579563746805
sS'r'
F0.49730351644790149
sg4
S'circle_112_img.jpg'
p47
sba(icapFunc
capDat
p48
(dp49
S'b'
F0.61157413709285369
sS'g'
F0.55648063522929836
sS'h'
F0.76913483655017034
sS'l'
F0.61157413709285369
sS's'
F0.090084747738753093
sS'r'
F0.59035261707988984
sg4
S'circle_113_img.jpg'
p50
sba(icapFunc
capDat
p51
(dp52
S'b'
F0.74109933560200936
sS'g'
F0.67599513855128823
sS'h'
F0.61893706866743392
sS'l'
F0.74109933560200936
sS's'
F0.12310170895392497
sS'r'
F0.64986874088478364
sg4
S'circle_114_img.jpg'
p53
sba(icapFunc
capDat
p54
(dp55
S'b'
F0.37129314535731645
sS'g'
F0.3514172743477556
sS'h'
F0.61296977869145397
sS'l'
F0.37129314535731645
sS's'
F0.078976104746317388
sS'r'
F0.34196985901798738
sg4
S'circle_115_img.jpg'
p56
sba(icapFunc
capDat
p57
(dp58
S'b'
F0.54426413871333656
sS'g'
F0.64997407227353754
sS'h'
F0.1648082236356764
sS'l'
F0.65116609949765036
sS's'
F0.16417003413842421
sS'r'
F0.65116609949765036
sg4
S'circle_116_img.jpg'
p59
sba(icapFunc
capDat
p60
(dp61
S'b'
F0.37139880084265114
sS'g'
F0.53060703289580291
sS'h'
F0.16751316913560391
sS'l'
F0.53060703289580291
sS's'
F0.30004923075419548
sS'r'
F0.52979841192675414
sg4
S'circle_117_img.jpg'
p62
sba(icapFunc
capDat
p63
(dp64
S'b'
F0.35631080862096909
sS'g'
F0.30825117485010528
sS'h'
F0.80524946950079113
sS'l'
F0.35631080862096909
sS's'
F0.13488121215539087
sS'r'
F0.34821260735699239
sg4
S'circle_118_img.jpg'
p65
sba(icapFunc
capDat
p66
(dp67
S'b'
F0.49557478528601523
sS'g'
F0.4529379355047804
sS'h'
F0.60897993468957667
sS'l'
F0.49557478528601523
sS's'
F0.13157643470390354
sS'r'
F0.43036882190892883
sg4
S'circle_119_img.jpg'
p68
sba(icapFunc
capDat
p69
(dp70
S'b'
F0.82774299141144059
sS'g'
F0.78977053962080701
sS'h'
F0.63250548506027904
sS'l'
F0.82774299141144059
sS's'
F0.057701621886600662
sS'r'
F0.7799808783017339
sg4
S'circle_11_img.jpg'
p71
sba(icapFunc
capDat
p72
(dp73
S'b'
F0.25255809431210502
sS'g'
F0.25315216334467672
sS'h'
F0.02385600499765711
sS'l'
F0.25670847512558742
sS's'
F0.0161676813025045
sS'r'
F0.25670847512558742
sg4
S'circle_120_img.jpg'
p74
sba(icapFunc
capDat
p75
(dp76
S'b'
F0.67501409820126401
sS'g'
F0.62829298330902605
sS'h'
F0.71418050564889457
sS'l'
F0.67501409820126401
sS's'
F0.069215020866582655
sS'r'
F0.64161238048938585
sg4
S'circle_121_img.jpg'
p77
sba(icapFunc
capDat
p78
(dp79
S'b'
F0.58732004537352134
sS'g'
F0.5306277750769729
sS'h'
F0.76655385576974389
sS'l'
F0.58732004537352134
sS's'
F0.096527048145434113
sS'r'
F0.56460476421973749
sg4
S'circle_122_img.jpg'
p80
sba(icapFunc
capDat
p81
(dp82
S'b'
F0.27120466699076329
sS'g'
F0.21358353589369633
sS'h'
F0.64173694121173563
sS'l'
F0.27120466699076329
sS's'
F0.24983329389748127
sS'r'
F0.20344871171609138
sg4
S'circle_123_img.jpg'
p83
sba(icapFunc
capDat
p84
(dp85
S'b'
F0.55592772646248589
sS'g'
F0.60474509803921572
sS'h'
F0.18178468524690317
sS'l'
F0.60474509803921572
sS's'
F0.080723881408897649
sS'r'
F0.60031696645600385
sg4
S'circle_124_img.jpg'
p86
sba(icapFunc
capDat
p87
(dp88
S'b'
F0.57939944903581264
sS'g'
F0.59827872305947172
sS'h'
F0.18236569845956621
sS'l'
F0.59827872305947172
sS's'
F0.031555984353102903
sS'r'
F0.596500405120726
sg4
S'circle_125_img.jpg'
p89
sba(icapFunc
capDat
p90
(dp91
S'b'
F0.39549700210662775
sS'g'
F0.347209528439475
sS'h'
F0.61870184915190762
sS'l'
F0.39549700210662775
sS's'
F0.17142831388192781
sS'r'
F0.3276976178901313
sg4
S'circle_126_img.jpg'
p92
sba(icapFunc
capDat
p93
(dp94
S'b'
F0.79391767946848157
sS'g'
F0.75912072597634095
sS'h'
F0.60777576345264694
sS'l'
F0.79391767946848157
sS's'
F0.067778724404839369
sS'r'
F0.74010695187165776
sg4
S'circle_127_img.jpg'
p95
sba(icapFunc
capDat
p96
(dp97
S'b'
F0.56003208556149731
sS'g'
F0.47606838437854482
sS'h'
F0.62641507592614276
sS'l'
F0.56003208556149731
sS's'
F0.19766443920904131
sS'r'
F0.4493336574299141
sg4
S'circle_128_img.jpg'
p98
sba(icapFunc
capDat
p99
(dp100
S'b'
F0.45047966293955599
sS'g'
F0.41870685464268348
sS'h'
F0.61605016312248162
sS'l'
F0.45047966293955599
sS's'
F0.10129392678180239
sS'r'
F0.40484880894506559
sg4
S'circle_129_img.jpg'
p101
sba(icapFunc
capDat
p102
(dp103
S'b'
F0.34142213579646735
sS'g'
F0.28731194295900181
sS'h'
F0.62383917233358266
sS'l'
F0.34142213579646735
sS's'
F0.21329374308230595
sS'r'
F0.26859893048128347
sg4
S'circle_12_img.jpg'
p104
sba(icapFunc
capDat
p105
(dp106
S'b'
F0.48373683357640573
sS'g'
F0.47980748663101602
sS'h'
F0.55126253657381563
sS'l'
F0.48373683357640573
sS's'
F0.02640948163235218
sS'r'
F0.47096159455517744
sg4
S'circle_130_img.jpg'
p107
sba(icapFunc
capDat
p108
(dp109
S'b'
F0.50839734240803758
sS'g'
F0.45992643007616268
sS'h'
F0.61506013158785544
sS'l'
F0.50839734240803758
sS's'
F0.13810258437137435
sS'r'
F0.43818635553394908
sg4
S'circle_131_img.jpg'
p110
sba(icapFunc
capDat
p111
(dp112
S'b'
F0.50027775076972936
sS'g'
F0.45415264948954787
sS'h'
F0.72457062420805851
sS'l'
F0.50027775076972936
sS's'
F0.092198985881769127
sS'r'
F0.47017760492626803
sg4
S'circle_132_img.jpg'
p113
sba(icapFunc
capDat
p114
(dp115
S'b'
F0.20233932912007779
sS'g'
F0.4596097877167396
sS'h'
F0.15819917030971492
sS'l'
F0.4733800032409658
sS's'
F0.57256468854878839
sS'r'
F0.4733800032409658
sg4
S'circle_133_img.jpg'
p116
sba(icapFunc
capDat
p117
(dp118
S'b'
F0.58793388429752058
sS'g'
F0.53891298006806032
sS'h'
F0.70629096310400585
sS'l'
F0.58793388429752058
sS's'
F0.08337825993484245
sS'r'
F0.55056749311294761
sg4
S'circle_134_img.jpg'
p119
sba(icapFunc
capDat
p120
(dp121
S'b'
F0.30135051045211469
sS'g'
F0.39210695187165773
sS'h'
F0.13573807204036817
sS'l'
F0.4127862583049749
sS's'
F0.26995992625929227
sS'r'
F0.4127862583049749
sg4
S'circle_135_img.jpg'
p122
sba(icapFunc
capDat
p123
(dp124
S'b'
F0.5685742991411441
sS'g'
F0.64652309188138068
sS'h'
F0.16767909437267595
sS'l'
F0.64652309188138068
sS's'
F0.12056613865624781
sS'r'
F0.64604958677685953
sg4
S'circle_136_img.jpg'
p125
sba(icapFunc
capDat
p126
(dp127
S'b'
F0.51204440123156703
sS'g'
F0.54213158321179711
sS'h'
F0.028629830362534303
sS'l'
F0.68719494409333981
sS's'
F0.25487751964307609
sS'r'
F0.68719494409333981
sg4
S'circle_137_img.jpg'
p128
sba(icapFunc
capDat
p129
(dp130
S'b'
F0.60684783665532338
sS'g'
F0.56133138875384858
sS'h'
F0.60662199567866659
sS'l'
F0.60684783665532338
sS's'
F0.117243964924705
sS'r'
F0.53569859017987353
sg4
S'circle_138_img.jpg'
p131
sba(icapFunc
capDat
p132
(dp133
S'b'
F0.4624047966293956
sS'g'
F0.54683584508183436
sS'h'
F0.13162516496597609
sS'l'
F0.56931323934532485
sS's'
F0.18778492282889359
sS'r'
F0.56931323934532485
sg4
S'circle_139_img.jpg'
p134
sba(icapFunc
capDat
p135
(dp136
S'b'
F0.21012315670069681
sS'g'
F0.17482806676389565
sS'h'
F0.63157112618881939
sS'l'
F0.21012315670069681
sS's'
F0.21277888745787285
sS'r'
F0.16541338518878626
sg4
S'circle_13_img.jpg'
p137
sba(icapFunc
capDat
p138
(dp139
S'b'
F0.57833284718846212
sS'g'
F0.61315410792416147
sS'h'
F0.21407097849052029
sS'l'
F0.61315410792416147
sS's'
F0.056790389700864981
sS'r'
F0.60325004051207265
sg4
S'circle_140_img.jpg'
p140
sba(icapFunc
capDat
p141
(dp142
S'b'
F0.58051790633608824
sS'g'
F0.50124517906336086
sS'h'
F0.6271477984773205
sS'l'
F0.58051790633608824
sS's'
F0.17899796112970845
sS'r'
F0.47660638470264138
sg4
S'circle_141_img.jpg'
p143
sba(icapFunc
capDat
p144
(dp145
S'b'
F0.37177799384216492
sS'g'
F0.34528666342570086
sS'h'
F0.61650901979565775
sS'l'
F0.37177799384216492
sS's'
F0.10193170554806318
sS'r'
F0.33388202884459572
sg4
S'circle_142_img.jpg'
p146
sba(icapFunc
capDat
p147
(dp148
S'b'
F0.68165742991411438
sS'g'
F0.66196272889321017
sS'h'
F0.61660679745786118
sS'l'
F0.68165742991411438
sS's'
F0.041296010847952709
sS'r'
F0.65350769729379354
sg4
S'circle_143_img.jpg'
p149
sba(icapFunc
capDat
p150
(dp151
S'b'
F0.66520272241127854
sS'g'
F0.61232928212607352
sS'h'
F0.61965659632832393
sS'l'
F0.66520272241127854
sS's'
F0.11071224463247695
sS'r'
F0.59155663587749141
sg4
S'circle_144_img.jpg'
p152
sba(icapFunc
capDat
p153
(dp154
S'b'
F0.64506692594393122
sS'g'
F0.57100794036622915
sS'h'
F0.62763270485778311
sS'l'
F0.64506692594393122
sS's'
F0.14992006447094325
sS'r'
F0.54835845081834389
sg4
S'circle_145_img.jpg'
p155
sba(icapFunc
capDat
p156
(dp157
S'b'
F0.5542978447577378
sS'g'
F0.48769729379355048
sS'h'
F0.6251080638130514
sS'l'
F0.5542978447577378
sS's'
F0.16006562645078076
sS'r'
F0.46557381299627287
sg4
S'circle_146_img.jpg'
p158
sba(icapFunc
capDat
p159
(dp160
S'b'
F0.26676713660670875
sS'g'
F0.22416820612542537
sS'h'
F0.62447865171093142
sS'l'
F0.26676713660670875
sS's'
F0.21380617414440348
sS'r'
F0.20973067574137091
sg4
S'circle_147_img.jpg'
p161
sba(icapFunc
capDat
p162
(dp163
S'b'
F0.37535699238373033
sS'g'
F0.33270944741532976
sS'h'
F0.62290548189327632
sS'l'
F0.37535699238373033
sS's'
F0.15407317098442005
sS'r'
F0.31752455031599419
sg4
S'circle_148_img.jpg'
p164
sba(icapFunc
capDat
p165
(dp166
S'b'
F0.48863522929833086
sS'g'
F0.55132134175984437
sS'h'
F0.1420647267161127
sS'l'
F0.56217695673310653
sS's'
F0.13081597627575758
sS'r'
F0.56217695673310653
sg4
S'circle_149_img.jpg'
p167
sba(icapFunc
capDat
p168
(dp169
S'b'
F0.32089709933560201
sS'g'
F0.55266828714957061
sS'h'
F0.11763357043292143
sS'l'
F0.64927726462485824
sS's'
F0.50576261203137751
sS'r'
F0.64927726462485824
sg4
S'circle_14_img.jpg'
p170
sba(icapFunc
capDat
p171
(dp172
S'b'
F0.44690617403986388
sS'g'
F0.44063976665046184
sS'h'
F0.51906827299731362
sS'l'
F0.44690617403986388
sS's'
F0.12255743406658347
sS'r'
F0.39213450008102418
sg4
S'circle_150_img.jpg'
p173
sba(icapFunc
capDat
p174
(dp175
S'b'
F0.31315281153783825
sS'g'
F0.24959325879111977
sS'h'
F0.63436833255910507
sS'l'
F0.31315281153783825
sS's'
F0.25175397652533071
sS'r'
F0.2343153459731
sg4
S'circle_151_img.jpg'
p176
sba(icapFunc
capDat
p177
(dp178
S'b'
F0.52905687894992703
sS'g'
F0.54966909739102254
sS'h'
F0.21788340487533811
sS'l'
F0.54966909739102254
sS's'
F0.037499321935561582
sS'r'
F0.54333495381623731
sg4
S'circle_152_img.jpg'
p179
sba(icapFunc
capDat
p180
(dp181
S'b'
F0.3782482579808783
sS'g'
F0.30651304488737646
sS'h'
F0.67476435091270248
sS'l'
F0.3782482579808783
sS's'
F0.18965113937716613
sS'r'
F0.30999837951709608
sg4
S'circle_153_img.jpg'
p182
sba(icapFunc
capDat
p183
(dp184
S'b'
F0.41215005671690164
sS'g'
F0.37866990763247449
sS'h'
F0.62716343904949012
sS'l'
F0.41215005671690164
sS's'
F0.10646785495510301
sS'r'
F0.36826932425862907
sg4
S'circle_154_img.jpg'
p185
sba(icapFunc
capDat
p186
(dp187
S'b'
F0.38031242910387292
sS'g'
F0.31720012963863231
sS'h'
F0.62925482980680769
sS'l'
F0.38031242910387292
sS's'
F0.21398111898719499
sS'r'
F0.29893274995948793
sg4
S'circle_155_img.jpg'
p188
sba(icapFunc
capDat
p189
(dp190
S'b'
F0.40577702155242262
sS'g'
F0.47567687570896128
sS'h'
F0.16430954884124879
sS'l'
F0.47667963052989792
sS's'
F0.14874268677823901
sS'r'
F0.47667963052989792
sg4
S'circle_156_img.jpg'
p191
sba(icapFunc
capDat
p192
(dp193
S'b'
F0.48500858855939072
sS'g'
F0.4268666342570086
sS'h'
F0.62310146777281428
sS'l'
F0.48500858855939072
sS's'
F0.16230268881799731
sS'r'
F0.40629039053637983
sg4
S'circle_157_img.jpg'
p194
sba(icapFunc
capDat
p195
(dp196
S'b'
F0.66633673634743151
sS'g'
F0.49415556635877489
sS'h'
F0.58424625949240239
sS'l'
F0.66633673634743151
sS's'
F0.51119902800705452
sS'r'
F0.32570604440123158
sg4
S'circle_158_img.jpg'
p197
sba(icapFunc
capDat
p198
(dp199
S'b'
F0.26730935018635554
sS'g'
F0.21021422783989629
sS'h'
F0.63365668833494171
sS'l'
F0.26730935018635554
sS's'
F0.26634399593590069
sS'r'
F0.1961131097066926
sg4
S'circle_159_img.jpg'
p200
sba(icapFunc
capDat
p201
(dp202
S'b'
F0.55384216496515959
sS'g'
F0.685877167395884
sS'h'
F0.17031137751987857
sS'l'
F0.685877167395884
sS's'
F0.19250531830944395
sS'r'
F0.68298979095770529
sg4
S'circle_15_img.jpg'
p203
sba(icapFunc
capDat
p204
(dp205
S'b'
F0.54587716739588388
sS'g'
F0.48914989466861125
sS'h'
F0.62281396034185155
sS'l'
F0.54587716739588388
sS's'
F0.14102561057861271
sS'r'
F0.46889450656295578
sg4
S'circle_160_img.jpg'
p206
sba(icapFunc
capDat
p207
(dp208
S'b'
F0.42008102414519527
sS'g'
F0.44678917517420191
sS'h'
F0.39874997849874561
sS'l'
F0.44678917517420191
sS's'
F0.098399933844395063
sS'r'
F0.40282514989466861
sg4
S'circle_161_img.jpg'
p209
sba(icapFunc
capDat
p210
(dp211
S'b'
F0.56824728569113603
sS'g'
F0.53063814616755789
sS'h'
F0.53074991931137239
sS'l'
F0.56824728569113603
sS's'
F0.35872429957446622
sS'r'
F0.36440317614649165
sg4
S'circle_162_img.jpg'
p212
sba(icapFunc
capDat
p213
(dp214
S'b'
F0.54133851887862583
sS'g'
F0.57228714957057203
sS'h'
F0.23815956659545626
sS'l'
F0.57228714957057203
sS's'
F0.054078849604030373
sS'r'
F0.55901150542861777
sg4
S'circle_163_img.jpg'
p215
sba(icapFunc
capDat
p216
(dp217
S'b'
F0.44386679630529896
sS'g'
F0.40809949765029979
sS'h'
F0.63198525630446056
sS'l'
F0.44386679630529896
sS's'
F0.10175524679256197
sS'r'
F0.39870102090422943
sg4
S'circle_164_img.jpg'
p218
sba(icapFunc
capDat
p219
(dp220
S'b'
F0.62968076486793068
sS'g'
F0.57431340139361531
sS'h'
F0.61276437607839573
sS'l'
F0.62968076486793068
sS's'
F0.12996016223338541
sS'r'
F0.54784735051045219
sg4
S'circle_165_img.jpg'
p221
sba(icapFunc
capDat
p222
(dp223
S'b'
F0.75747172257332684
sS'g'
F0.72668935342732144
sS'h'
F0.60522776322728433
sS'l'
F0.75747172257332684
sS's'
F0.064365630531508247
sS'r'
F0.70871657754010697
sg4
S'circle_166_img.jpg'
p224
sba(icapFunc
capDat
p225
(dp226
S'b'
F0.59318003565062383
sS'g'
F0.5691508669583536
sS'h'
F0.62589400330093559
sS'l'
F0.59318003565062383
sS's'
F0.053628534134823456
sS'r'
F0.56136865986063855
sg4
S'circle_167_img.jpg'
p227
sba(icapFunc
capDat
p228
(dp229
S'b'
F0.61370539620807008
sS'g'
F0.69261643169664566
sS'h'
F0.16409219571370828
sS'l'
F0.69385448063522925
sS's'
F0.1155128152430205
sS'r'
F0.69385448063522925
sg4
S'circle_168_img.jpg'
p230
sba(icapFunc
capDat
p231
(dp232
S'b'
F0.4563587749149246
sS'g'
F0.4720191216982661
sS'h'
F0.016493099999658718
sS'l'
F0.61461027386161082
sS's'
F0.25748267752243764
sS'r'
F0.61461027386161082
sg4
S'circle_169_img.jpg'
p233
sba(icapFunc
capDat
p234
(dp235
S'b'
F0.67942245989304817
sS'g'
F0.67500275482093663
sS'h'
F0.86081001081919517
sS'l'
F0.68029492788851076
sS's'
F0.007779233462756943
sS'r'
F0.68029492788851076
sg4
S'circle_16_img.jpg'
p236
sba(icapFunc
capDat
p237
(dp238
S'b'
F0.54564187327823699
sS'g'
F0.5162809917355371
sS'h'
F0.73864242638320088
sS'l'
F0.54564187327823699
sS's'
F0.053809802694024571
sS'r'
F0.52896062226543505
sg4
S'circle_170_img.jpg'
p239
sba(icapFunc
capDat
p240
(dp241
S'b'
F0.55932620320855608
sS'g'
F0.48873116188624205
sS'h'
F0.64047004561934351
sS'l'
F0.55932620320855608
sS's'
F0.14975249174151589
sS'r'
F0.47556571058175334
sg4
S'circle_171_img.jpg'
p242
sba(icapFunc
capDat
p243
(dp244
S'b'
F0.4790666018473505
sS'g'
F0.38192837465564738
sS'h'
F0.63357970615317016
sS'l'
F0.4790666018473505
sS's'
F0.25298952752070142
sS'r'
F0.35786776859504132
sg4
S'circle_172_img.jpg'
p245
sba(icapFunc
capDat
p246
(dp247
S'b'
F0.41491298006806032
sS'g'
F0.49295511262356184
sS'h'
F0.13917537094320612
sS'l'
F0.50837076648841351
sS's'
F0.18383784548807885
sS'r'
F0.50837076648841351
sg4
S'circle_173_img.jpg'
p248
sba(icapFunc
capDat
p249
(dp250
S'b'
F0.58894344514665364
sS'g'
F0.51199351806838433
sS'h'
F0.62572119355945566
sS'l'
F0.58894344514665364
sS's'
F0.17321076280070535
sS'r'
F0.4869321017663264
sg4
S'circle_174_img.jpg'
p251
sba(icapFunc
capDat
p252
(dp253
S'b'
F0.32867314859828228
sS'g'
F0.25529411764705878
sS'h'
F0.65372368017250981
sS'l'
F0.32867314859828228
sS's'
F0.24205592823736022
sS'r'
F0.24911586452762924
sg4
S'circle_175_img.jpg'
p254
sba(icapFunc
capDat
p255
(dp256
S'b'
F0.31205671690163667
sS'g'
F0.48280505590666023
sS'h'
F0.093681040917841088
sS'l'
F0.61583276616431692
sS's'
F0.4932768536411824
sS'r'
F0.61583276616431692
sg4
S'circle_176_img.jpg'
p257
sba(icapFunc
capDat
p258
(dp259
S'b'
F0.68288543185869388
sS'g'
F0.61399902771025772
sS'h'
F0.61723283969002496
sS'l'
F0.68288543185869388
sS's'
F0.14341188101049676
sS'r'
F0.58495154756117318
sg4
S'circle_177_img.jpg'
p260
sba(icapFunc
capDat
p261
(dp262
S'b'
F0.55979938421649644
sS'g'
F0.51910905849943279
sS'h'
F0.60476433656763495
sS'l'
F0.55979938421649644
sS's'
F0.11563625879354644
sS'r'
F0.49506627775076972
sg4
S'circle_178_img.jpg'
p263
sba(icapFunc
capDat
p264
(dp265
S'b'
F0.45377053962080699
sS'g'
F0.60474801490844265
sS'h'
F0.16609973807185788
sS'l'
F0.60526332847188469
sS's'
F0.2502923632157813
sS'r'
F0.60526332847188469
sg4
S'circle_179_img.jpg'
p266
sba(icapFunc
capDat
p267
(dp268
S'b'
F0.76526041160265768
sS'g'
F0.71024534111165127
sS'h'
F0.62046061287314636
sS'l'
F0.76526041160265768
sS's'
F0.099466333165481716
sS'r'
F0.68914276454383405
sg4
S'circle_17_img.jpg'
p269
sba(icapFunc
capDat
p270
(dp271
S'b'
F0.45171285042942799
sS'g'
F0.466490034030141
sS'h'
F0.011993388182797179
sS'l'
F0.65706465726786578
sS's'
F0.31252907087151688
sS'r'
F0.65706465726786578
sg4
S'circle_180_img.jpg'
p272
sba(icapFunc
capDat
p273
(dp274
S'b'
F0.41415362177929022
sS'g'
F0.41648128342245988
sS'h'
F0.0020088678846302277
sS'l'
F0.60726916221033866
sS's'
F0.31800649933901859
sS'r'
F0.60726916221033866
sg4
S'circle_181_img.jpg'
p275
sba(icapFunc
capDat
p276
(dp277
S'b'
F0.37976146491654511
sS'g'
F0.38870944741532976
sS'h'
F0.0089719717280039024
sS'l'
F0.54598249878463778
sS's'
F0.30444388645808662
sS'r'
F0.54598249878463778
sg4
S'circle_182_img.jpg'
p278
sba(icapFunc
capDat
p279
(dp280
S'b'
F0.52855226057365101
sS'g'
F0.52677685950413222
sS'h'
F0.99771863497909785
sS'l'
F0.65647998703613675
sS's'
F0.19757362005441434
sS'r'
F0.65647998703613675
sg4
S'circle_183_img.jpg'
p281
sba(icapFunc
capDat
p282
(dp283
S'b'
F0.50968562631664238
sS'g'
F0.58313044887376442
sS'h'
F0.17534441826189032
sS'l'
F0.58313044887376442
sS's'
F0.12594921547823565
sS'r'
F0.5793064333171285
sg4
S'circle_184_img.jpg'
p284
sba(icapFunc
capDat
p285
(dp286
S'b'
F0.26796953492140657
sS'g'
F0.26104164641063038
sS'h'
F0.66744635728542911
sS'l'
F0.26796953492140657
sS's'
F0.025853269151689534
sS'r'
F0.26107405606870848
sg4
S'circle_185_img.jpg'
p287
sba(icapFunc
capDat
p288
(dp289
S'b'
F0.51644109544644312
sS'g'
F0.456339005023497
sS'h'
F0.62678595601717968
sS'l'
F0.51644109544644312
sS's'
F0.15298413094869787
sS'r'
F0.4374338032733755
sg4
S'circle_186_img.jpg'
p290
sba(icapFunc
capDat
p291
(dp292
S'b'
F0.58262550640090749
sS'g'
F0.53174785286015236
sS'h'
F0.54218619077640129
sS'l'
F0.58262550640090749
sS's'
F0.34499755519719466
sS'r'
F0.38162113109706691
sg4
S'circle_187_img.jpg'
p293
sba(icapFunc
capDat
p294
(dp295
S'b'
F0.38149894668611245
sS'g'
F0.62869648355209851
sS'h'
F0.1092461504570925
sS'l'
F0.75862518230432663
sS's'
F0.49711800295462366
sS'r'
F0.75862518230432663
sg4
S'circle_188_img.jpg'
p296
sba(icapFunc
capDat
p297
(dp298
S'b'
F0.51408426511100302
sS'g'
F0.57698752228163985
sS'h'
F0.14927480722285544
sS'l'
F0.58431631826284225
sS's'
F0.12019526232065084
sS'r'
F0.58431631826284225
sg4
S'circle_189_img.jpg'
p299
sba(icapFunc
capDat
p300
(dp301
S'b'
F0.5321069518716578
sS'g'
F0.50263652568465411
sS'h'
F0.59279885536069987
sS'l'
F0.5321069518716578
sS's'
F0.099470342596247194
sS'r'
F0.47917809107113918
sg4
S'circle_18_img.jpg'
p302
sba(icapFunc
capDat
p303
(dp304
S'b'
F0.53336574299141137
sS'g'
F0.5768802463134014
sS'h'
F0.17221419491946213
sS'l'
F0.5768802463134014
sS's'
F0.075430739048655049
sS'r'
F0.5754318586938908
sg4
S'circle_190_img.jpg'
p305
sba(icapFunc
capDat
p306
(dp307
S'b'
F0.3840807000486145
sS'g'
F0.37906789823367365
sS'h'
F0.99453174606541683
sS'l'
F0.53185286015232536
sS's'
F0.28726923058173143
sS'r'
F0.53185286015232536
sg4
S'circle_191_img.jpg'
p308
sba(icapFunc
capDat
p309
(dp310
S'b'
F0.39543574785286012
sS'g'
F0.40592027224112787
sS'h'
F0.35146105386889931
sS'l'
F0.40592027224112787
sS's'
F0.028981202698354493
sS'r'
F0.3941562145519365
sg4
S'circle_192_img.jpg'
p311
sba(icapFunc
capDat
p312
(dp313
S'b'
F0.52231307729703458
sS'g'
F0.56195170960946361
sS'h'
F0.21798645462845587
sS'l'
F0.56195170960946361
sS's'
F0.070537435218368624
sS'r'
F0.54974623237724851
sg4
S'circle_193_img.jpg'
p314
sba(icapFunc
capDat
p315
(dp316
S'b'
F0.2701714470912332
sS'g'
F0.36770345162858531
sS'h'
F0.087147209239020265
sS'l'
F0.45669875222816397
sS's'
F0.40842525675161656
sS'r'
F0.45669875222816397
sg4
S'circle_194_img.jpg'
p317
sba(icapFunc
capDat
p318
(dp319
S'b'
F0.5178152649489548
sS'g'
F0.42072403176146494
sS'h'
F0.62941119042311833
sS'l'
F0.5178152649489548
sS's'
F0.24148051065299975
sS'r'
F0.39277297034516284
sg4
S'circle_195_img.jpg'
p320
sba(icapFunc
capDat
p321
(dp322
S'b'
F0.25909155728407063
sS'g'
F0.20133333333333334
sS'h'
F0.63373932489831442
sS'l'
F0.25909155728407063
sS's'
F0.27781148247432219
sS'r'
F0.1871129476584022
sg4
S'circle_196_img.jpg'
p323
sba(icapFunc
capDat
p324
(dp325
S'b'
F0.40610760006481927
sS'g'
F0.55282514989466858
sS'h'
F0.10086845035889086
sS'l'
F0.64853151839248091
sS's'
F0.37380437411671108
sS'r'
F0.64853151839248091
sg4
S'circle_197_img.jpg'
p326
sba(icapFunc
capDat
p327
(dp328
S'b'
F0.40705493437044238
sS'g'
F0.34783471074380162
sS'h'
F0.70226224615631605
sS'l'
F0.40705493437044238
sS's'
F0.14548459833371555
sS'r'
F0.36048257980878307
sg4
S'circle_198_img.jpg'
p329
sba(icapFunc
capDat
p330
(dp331
S'b'
F0.53300729217306753
sS'g'
F0.39410468319559228
sS'h'
F0.63745495504163563
sS'l'
F0.53300729217306753
sS's'
F0.31598437061061874
sS'r'
F0.36458531842489061
sg4
S'circle_199_img.jpg'
p332
sba(icapFunc
capDat
p333
(dp334
S'b'
F0.54154529249716421
sS'g'
F0.49351482741857072
sS'h'
F0.66549190396426594
sS'l'
F0.54154529249716421
sS's'
F0.089321087915889191
sS'r'
F0.49317387781558908
sg4
S'circle_19_img.jpg'
p335
sba(icapFunc
capDat
p336
(dp337
S'b'
F0.62128990439150866
sS'g'
F0.67810338680926907
sS'h'
F0.17007800050960845
sS'l'
F0.67810338680926907
sS's'
F0.083782920898078928
sS'r'
F0.67694052827742657
sg4
S'circle_1_img.jpg'
p338
sba(icapFunc
capDat
p339
(dp340
S'b'
F0.60193712526332854
sS'g'
F0.46942083941014423
sS'h'
F0.63448020681217188
sS'l'
F0.60193712526332854
sS's'
F0.27284029253579301
sS'r'
F0.4377044239183277
sg4
S'circle_200_img.jpg'
p341
sba(icapFunc
capDat
p342
(dp343
S'b'
F0.38282028844595689
sS'g'
F0.32939685626316645
sS'h'
F0.62142816100844633
sS'l'
F0.38282028844595689
sS's'
F0.19154294983372733
sS'r'
F0.30949376114081995
sg4
S'circle_201_img.jpg'
p344
sba(icapFunc
capDat
p345
(dp346
S'b'
F0.4159640252795333
sS'g'
F0.34007972775887219
sS'h'
F0.65238614043103205
sS'l'
F0.4159640252795333
sS's'
F0.19952596775739273
sS'r'
F0.33296840058337385
sg4
S'circle_202_img.jpg'
p347
sba(icapFunc
capDat
p348
(dp349
S'b'
F0.53354302382109864
sS'g'
F0.52795462647869074
sS'h'
F0.92234981536521787
sS'l'
F0.53994944093339814
sS's'
F0.022214699276236389
sS'r'
F0.53994944093339814
sg4
S'circle_203_img.jpg'
p350
sba(icapFunc
capDat
p351
(dp352
S'b'
F0.49749181656133529
sS'g'
F0.49961594555177447
sS'h'
F0.0025975096564423241
sS'l'
F0.63378447577378061
sS's'
F0.21504575202169016
sS'r'
F0.63378447577378061
sg4
S'circle_204_img.jpg'
p353
sba(icapFunc
capDat
p354
(dp355
S'b'
F0.41134726948630695
sS'g'
F0.34974526008750606
sS'h'
F0.62931772319490775
sS'l'
F0.41134726948630695
sS's'
F0.19300873297762719
sS'r'
F0.33195365418894829
sg4
S'circle_205_img.jpg'
p356
sba(icapFunc
capDat
p357
(dp358
S'b'
F0.54615556635877494
sS'g'
F0.65900599578674446
sS'h'
F0.15412753721724115
sS'l'
F0.6681870037271106
sS's'
F0.18263066579812384
sS'r'
F0.6681870037271106
sg4
S'circle_206_img.jpg'
p359
sba(icapFunc
capDat
p360
(dp361
S'b'
F0.32572840706530543
sS'g'
F0.3058768432993032
sS'h'
F0.98128899780118539
sS'l'
F0.48270296548371411
sS's'
F0.36632491372248849
sS'r'
F0.48270296548371411
sg4
S'circle_207_img.jpg'
p362
sba(icapFunc
capDat
p363
(dp364
S'b'
F0.63773877815589042
sS'g'
F0.5660631988332524
sS'h'
F0.62897335680052979
sS'l'
F0.63773877815589042
sS's'
F0.14523695421607385
sS'r'
F0.54511554043104848
sg4
S'circle_208_img.jpg'
p365
sba(icapFunc
capDat
p366
(dp367
S'b'
F0.52922540917193328
sS'g'
F0.62538032733754656
sS'h'
F0.095296370601208033
sS'l'
F0.69739361529735866
sS's'
F0.24113814987210755
sS'r'
F0.69739361529735866
sg4
S'circle_209_img.jpg'
p368
sba(icapFunc
capDat
p369
(dp370
S'b'
F0.44704326689353424
sS'g'
F0.44827904715605249
sS'h'
F0.0015381822582597275
sS'l'
F0.58094376924323454
sS's'
F0.23048788787962313
sS'r'
F0.58094376924323454
sg4
S'circle_20_img.jpg'
p371
sba(icapFunc
capDat
p372
(dp373
S'b'
F0.47878398962890939
sS'g'
F0.44992124453087018
sS'h'
F0.6710272188286025
sS'l'
F0.47878398962890939
sS's'
F0.060283438300453254
sS'r'
F0.45067638956409012
sg4
S'circle_210_img.jpg'
p374
sba(icapFunc
capDat
p375
(dp376
S'b'
F0.5329282126073569
sS'g'
F0.57217695673310642
sS'h'
F0.15119304448572762
sS'l'
F0.57619380975530698
sS's'
F0.075088618474266053
sS'r'
F0.57619380975530698
sg4
S'circle_211_img.jpg'
p377
sba(icapFunc
capDat
p378
(dp379
S'b'
F0.32476065467509319
sS'g'
F0.2524913304164641
sS'h'
F0.65017537195826636
sS'l'
F0.32476065467509319
sS's'
F0.24696796264454138
sS'r'
F0.24455517744287797
sg4
S'circle_212_img.jpg'
p380
sba(icapFunc
capDat
p381
(dp382
S'b'
F0.54480829687246801
sS'g'
F0.54869713174526002
sS'h'
F0.0078294652551572832
sS'l'
F0.62759034192189267
sS's'
F0.13190458730757104
sS'r'
F0.62759034192189267
sg4
S'circle_213_img.jpg'
p383
sba(icapFunc
capDat
p384
(dp385
S'b'
F0.31049295089936801
sS'g'
F0.40072403176146493
sS'h'
F0.15785504741752251
sS'l'
F0.4057608167233836
sS's'
F0.23478823458934889
sS'r'
F0.4057608167233836
sg4
S'circle_214_img.jpg'
p386
sba(icapFunc
capDat
p387
(dp388
S'b'
F0.39930059957867448
sS'g'
F0.44038599902771025
sS'h'
F0.18782851748718796
sS'l'
F0.44038599902771025
sS's'
F0.093294063707167432
sS'r'
F0.43516934046345812
sg4
S'circle_215_img.jpg'
p389
sba(icapFunc
capDat
p390
(dp391
S'b'
F0.52638405444822556
sS'g'
F0.53207648679306441
sS'h'
F0.0069030949163761401
sS'l'
F0.663820774590828
sS's'
F0.2070388957430821
sS'r'
F0.663820774590828
sg4
S'circle_216_img.jpg'
p392
sba(icapFunc
capDat
p393
(dp394
S'b'
F0.52113822719170311
sS'g'
F0.54632895802949288
sS'h'
F0.026218676295181004
sS'l'
F0.6812704585966618
sS's'
F0.23504942770425205
sS'r'
F0.6812704585966618
sg4
S'circle_217_img.jpg'
p395
sba(icapFunc
capDat
p396
(dp397
S'b'
F0.39423983146977798
sS'g'
F0.33332490682223298
sS'h'
F0.6266864292993839
sS'l'
F0.39423983146977798
sS's'
F0.20327401479907947
sS'r'
F0.31410111813320374
sg4
S'circle_218_img.jpg'
p398
sba(icapFunc
capDat
p399
(dp400
S'b'
F0.42669551126235616
sS'g'
F0.41225020256036299
sS'h'
F0.59468605807224595
sS'l'
F0.42669551126235616
sS's'
F0.059589736656415343
sS'r'
F0.40126883811375785
sg4
S'circle_219_img.jpg'
p401
sba(icapFunc
capDat
p402
(dp403
S'b'
F0.60659925457786423
sS'g'
F0.65299918975854809
sS'h'
F0.18208339445076974
sS'l'
F0.65299918975854809
sS's'
F0.071056650465126339
sS'r'
F0.64870717873926431
sg4
S'circle_21_img.jpg'
p404
sba(icapFunc
capDat
p405
(dp406
S'b'
F0.47881607519040675
sS'g'
F0.44981299627288929
sS'h'
F0.64537016280210702
sS'l'
F0.47881607519040675
sS's'
F0.069446258834008887
sS'r'
F0.44556409009884951
sg4
S'circle_220_img.jpg'
p407
sba(icapFunc
capDat
p408
(dp409
S'b'
F0.53597374817695675
sS'g'
F0.41479987036136767
sS'h'
F0.63735703379755559
sS'l'
F0.53597374817695675
sS's'
F0.27432370247686017
sS'r'
F0.38894344514665369
sg4
S'circle_221_img.jpg'
p410
sba(icapFunc
capDat
p411
(dp412
S'b'
F0.13271819802301088
sS'g'
F0.1086028196402528
sS'h'
F0.62198712715134941
sS'l'
F0.13271819802301088
sS's'
F0.2482551977768119
sS'r'
F0.099770215524226227
sg4
S'circle_222_img.jpg'
p413
sba(icapFunc
capDat
p414
(dp415
S'b'
F0.36911845730027548
sS'g'
F0.32904845243882674
sS'h'
F0.61452613325626382
sS'l'
F0.36911845730027548
sS's'
F0.15797842683606772
sS'r'
F0.31080570409982172
sg4
S'circle_223_img.jpg'
p416
sba(icapFunc
capDat
p417
(dp418
S'b'
F0.71449424728569122
sS'g'
F0.68252795333009242
sS'h'
F0.60024432980051134
sS'l'
F0.71449424728569122
sS's'
F0.074384506380376858
sS'r'
F0.66134694538972616
sg4
S'circle_224_img.jpg'
p419
sba(icapFunc
capDat
p420
(dp421
S'b'
F0.54777410468319554
sS'g'
F0.66717614649165446
sS'h'
F0.15364529899559101
sS'l'
F0.67729541403338189
sS's'
F0.1912331113817384
sS'r'
F0.67729541403338189
sg4
S'circle_225_img.jpg'
p422
sba(icapFunc
capDat
p423
(dp424
S'b'
F0.49916415491816563
sS'g'
F0.44079922216820616
sS'h'
F0.62672653780438703
sS'l'
F0.49916415491816563
sS's'
F0.15377643131834068
sS'r'
F0.42240447253281477
sg4
S'circle_226_img.jpg'
p425
sba(icapFunc
capDat
p426
(dp427
S'b'
F0.45981591314211639
sS'g'
F0.48840836169178414
sS'h'
F0.20395328451708927
sS'l'
F0.48840836169178414
sS's'
F0.058542094673865043
sS'r'
F0.48201166747690816
sg4
S'circle_227_img.jpg'
p428
sba(icapFunc
capDat
p429
(dp430
S'b'
F0.52149959487927411
sS'g'
F0.48195981202398314
sS'h'
F0.79010519125683054
sS'l'
F0.52149959487927411
sS's'
F0.075819393233554355
sS'r'
F0.51124420677361859
sg4
S'circle_228_img.jpg'
p431
sba(icapFunc
capDat
p432
(dp433
S'b'
F0.48238243396532171
sS'g'
F0.56185188786258311
sS'h'
F0.17464644940450724
sS'l'
F0.56185188786258311
sS's'
F0.14144199853022105
sS'r'
F0.5580469940042132
sg4
S'circle_229_img.jpg'
p434
sba(icapFunc
capDat
p435
(dp436
S'b'
F0.68133657429914118
sS'g'
F0.70555307081510299
sS'h'
F0.20646190221270536
sS'l'
F0.70555307081510299
sS's'
F0.034322714360785447
sS'r'
F0.69977086371738784
sg4
S'circle_22_img.jpg'
p437
sba(icapFunc
capDat
p438
(dp439
S'b'
F0.37581947820450495
sS'g'
F0.38469389077945226
sS'h'
F0.27273391278942311
sS'l'
F0.38469389077945226
sS's'
F0.023068763990419267
sS'r'
F0.37904618376276134
sg4
S'circle_230_img.jpg'
p440
sba(icapFunc
capDat
p441
(dp442
S'b'
F0.23128569113595851
sS'g'
F0.24928180197698915
sS'h'
F0.2347986865248739
sS'l'
F0.24928180197698915
sS's'
F0.072191835498252047
sS'r'
F0.24192513368983956
sg4
S'circle_231_img.jpg'
p443
sba(icapFunc
capDat
p444
(dp445
S'b'
F0.66641095446443033
sS'g'
F0.5660677361853832
sS'h'
F0.69131980444151608
sS'l'
F0.66641095446443033
sS's'
F0.1505725822884908
sS'r'
F0.580910387295414
sg4
S'circle_232_img.jpg'
p446
sba(icapFunc
capDat
p447
(dp448
S'b'
F0.31292918489709937
sS'g'
F0.26049359909252956
sS'h'
F0.96896797365989173
sS'l'
F0.54211440609301575
sS's'
F0.51948593107884655
sS'r'
F0.54211440609301575
sg4
S'circle_233_img.jpg'
p449
sba(icapFunc
capDat
p450
(dp451
S'b'
F0.42393258791119753
sS'g'
F0.38701831145681415
sS'h'
F0.60737631817607596
sS'l'
F0.42393258791119753
sS's'
F0.13515676842675026
sS'r'
F0.36663522929833087
sg4
S'circle_234_img.jpg'
p452
sba(icapFunc
capDat
p453
(dp454
S'b'
F0.3613200453735213
sS'g'
F0.4858768432993032
sS'h'
F0.097072714110854649
sS'l'
F0.57517485010533143
sS's'
F0.37180833739974378
sS'r'
F0.57517485010533143
sg4
S'circle_235_img.jpg'
p455
sba(icapFunc
capDat
p456
(dp457
S'b'
F0.26746653702803436
sS'g'
F0.28470782693242591
sS'h'
F0.12498883986260141
sS'l'
F0.29045697617890132
sS's'
F0.079152649226460467
sS'r'
F0.29045697617890132
sg4
S'circle_236_img.jpg'
p458
sba(icapFunc
capDat
p459
(dp460
S'b'
F0.30965580943121046
sS'g'
F0.38885302220061579
sS'h'
F0.15026977631994851
sS'l'
F0.3974947334305623
sS's'
F0.22098135298865859
sS'r'
F0.3974947334305623
sg4
S'circle_237_img.jpg'
p461
sba(icapFunc
capDat
p462
(dp463
S'b'
F0.22288834872792093
sS'g'
F0.54843882677037747
sS'h'
F0.10760437716497236
sS'l'
F0.72712818019769887
sS's'
F0.69346759650090872
sS'r'
F0.72712818019769887
sg4
S'circle_238_img.jpg'
p464
sba(icapFunc
capDat
p465
(dp466
S'b'
F0.6084508183438665
sS'g'
F0.65238826770377567
sS'h'
F0.17959243386516555
sS'l'
F0.65238826770377567
sS's'
F0.067348619733087339
sS'r'
F0.64898071625344356
sg4
S'circle_239_img.jpg'
p467
sba(icapFunc
capDat
p468
(dp469
S'b'
F0.63710808620969039
sS'g'
F0.57823594231080866
sS'h'
F0.64940951779342748
sS'l'
F0.63710808620969039
sS's'
F0.1030782934351815
sS'r'
F0.57143607194944102
sg4
S'circle_23_img.jpg'
p470
sba(icapFunc
capDat
p471
(dp472
S'b'
F0.55862842327013451
sS'g'
F0.47216334467671367
sS'h'
F0.643287423438752
sS'l'
F0.55862842327013451
sS's'
F0.18003559891578794
sS'r'
F0.45805542051531356
sg4
S'circle_240_img.jpg'
p473
sba(icapFunc
capDat
p474
(dp475
S'b'
F0.38836493274995953
sS'g'
F0.34374558418408685
sS'h'
F0.62054120218119924
sS'l'
F0.38836493274995953
sS's'
F0.15885337561545534
sS'r'
F0.32667185221195916
sg4
S'circle_241_img.jpg'
p476
sba(icapFunc
capDat
p477
(dp478
S'b'
F0.66454901960784318
sS'g'
F0.62201976989142771
sS'h'
F0.61494422020405859
sS'l'
F0.66454901960784318
sS's'
F0.092794515978319114
sS'r'
F0.60288251498946688
sg4
S'circle_242_img.jpg'
p479
sba(icapFunc
capDat
p480
(dp481
S'b'
F0.39412542537676226
sS'g'
F0.50640252795333007
sS'h'
F0.15957399766187899
sS'l'
F0.51139296710419702
sS's'
F0.22931003997077132
sS'r'
F0.51139296710419702
sg4
S'circle_243_img.jpg'
p482
sba(icapFunc
capDat
p483
(dp484
S'b'
F0.37133689839572193
sS'g'
F0.4799364770701669
sS'h'
F0.1425702503671859
sS'l'
F0.49829136282612219
sS's'
F0.25477958058586853
sS'r'
F0.49829136282612219
sg4
S'circle_244_img.jpg'
p485
sba(icapFunc
capDat
p486
(dp487
S'b'
F0.6114133851887863
sS'g'
F0.58832409658078111
sS'h'
F0.59773771796243702
sS'l'
F0.6114133851887863
sS's'
F0.064396485373036882
sS'r'
F0.57204051207259765
sg4
S'circle_245_img.jpg'
p488
sba(icapFunc
capDat
p489
(dp490
S'b'
F0.41115378382758067
sS'g'
F0.3576107600064819
sS'h'
F0.62295590743866613
sS'l'
F0.41115378382758067
sS's'
F0.17652163974097751
sS'r'
F0.33857624372062872
sg4
S'circle_246_img.jpg'
p491
sba(icapFunc
capDat
p492
(dp493
S'b'
F0.48203111327175502
sS'g'
F0.48850688705234158
sS'h'
F0.0098993664326212181
sS'l'
F0.59105785123966936
sS's'
F0.1844603497597477
sS'r'
F0.59105785123966936
sg4
S'circle_247_img.jpg'
p494
sba(icapFunc
capDat
p495
(dp496
S'b'
F0.47395721925133688
sS'g'
F0.55877718360071305
sS'h'
F0.16550119203455327
sS'l'
F0.55937449359909253
sS's'
F0.15270141081723113
sS'r'
F0.55937449359909253
sg4
S'circle_248_img.jpg'
p497
sba(icapFunc
capDat
p498
(dp499
S'b'
F0.51710581753362506
sS'g'
F0.53991703127531998
sS'h'
F0.026416731597539562
sS'l'
F0.66102479338842979
sS's'
F0.21772099517942803
sS'r'
F0.66102479338842979
sg4
S'circle_249_img.jpg'
p500
sba(icapFunc
capDat
p501
(dp502
S'b'
F0.55931032247609791
sS'g'
F0.47050137741046832
sS'h'
F0.65567266133100632
sS'l'
F0.55931032247609791
sS's'
F0.16999661596799545
sS'r'
F0.46422946037919299
sg4
S'circle_24_img.jpg'
p503
sba(icapFunc
capDat
p504
(dp505
S'b'
F0.48046507859342086
sS'g'
F0.49046151353103223
sS'h'
F0.0094412334945236012
sS'l'
F0.65693274995948792
sS's'
F0.26862364736260991
sS'r'
F0.65693274995948792
sg4
S'circle_250_img.jpg'
p506
sba(icapFunc
capDat
p507
(dp508
S'b'
F0.44255550153945877
sS'g'
F0.40652276778479984
sS'h'
F0.64122918000467466
sS'l'
F0.44255550153945877
sS's'
F0.096084598738195845
sS'r'
F0.40003273375465886
sg4
S'circle_251_img.jpg'
p509
sba(icapFunc
capDat
p510
(dp511
S'b'
F0.404537352130935
sS'g'
F0.35470782693242586
sS'h'
F0.61858298008872759
sS'l'
F0.404537352130935
sS's'
F0.17312289697163913
sS'r'
F0.33450267379679144
sg4
S'circle_252_img.jpg'
p512
sba(icapFunc
capDat
p513
(dp514
S'b'
F0.48767006968076487
sS'g'
F0.44784702641387131
sS'h'
F0.62425899071045876
sS'l'
F0.48767006968076487
sS's'
F0.10952903756614252
sS'r'
F0.43425603629881704
sg4
S'circle_253_img.jpg'
p515
sba(icapFunc
capDat
p516
(dp517
S'b'
F0.53395689515475608
sS'g'
F0.56982531194295905
sS'h'
F0.23005818996674879
sS'l'
F0.56982531194295905
sS's'
F0.06294633817845123
sS'r'
F0.5561827904715605
sg4
S'circle_254_img.jpg'
p518
sba(icapFunc
capDat
p519
(dp520
S'b'
F0.71124031761464923
sS'g'
F0.68248646896775234
sS'h'
F0.60671516481190169
sS'l'
F0.71124031761464923
sS's'
F0.063139658022758421
sS'r'
F0.6663328471884622
sg4
S'circle_255_img.jpg'
p521
sba(icapFunc
capDat
p522
(dp523
S'b'
F0.38351612380489386
sS'g'
F0.51042002916869234
sS'h'
F0.092049109533555426
sS'l'
F0.61329184897099331
sS's'
F0.37465967557147017
sS'r'
F0.61329184897099331
sg4
S'circle_256_img.jpg'
p524
sba(icapFunc
capDat
p525
(dp526
S'b'
F0.40759325879111979
sS'g'
F0.34055777021552425
sS'h'
F0.62599089962173127
sS'l'
F0.40759325879111979
sS's'
F0.21756416240401585
sS'r'
F0.31891557284070654
sg4
S'circle_257_img.jpg'
p527
sba(icapFunc
capDat
p528
(dp529
S'b'
F0.37569534921406583
sS'g'
F0.34841192675417271
sS'h'
F0.60268598821678199
sS'l'
F0.37569534921406583
sS's'
F0.11786926936322058
sS'r'
F0.33141241289904388
sg4
S'circle_258_img.jpg'
p530
sba(icapFunc
capDat
p531
(dp532
S'b'
F0.40835358936963212
sS'g'
F0.36530513693080535
sS'h'
F0.61655943191909834
sS'l'
F0.40835358936963212
sS's'
F0.1507379114664974
sS'r'
F0.34679922216820608
sg4
S'circle_259_img.jpg'
p533
sba(icapFunc
capDat
p534
(dp535
S'b'
F0.64912850429427971
sS'g'
F0.65388753848646897
sS'h'
F0.31297103423227263
sS'l'
F0.65388753848646897
sS's'
F0.0072780622233676951
sS'r'
F0.6497099335602009
sg4
S'circle_25_img.jpg'
p536
sba(icapFunc
capDat
p537
(dp538
S'b'
F0.62765159617566035
sS'g'
F0.64207292173067576
sS'h'
F0.064146477183938524
sS'l'
F0.66512137416950246
sS's'
F0.056335248646351782
sS'r'
F0.66512137416950246
sg4
S'circle_260_img.jpg'
p539
sba(icapFunc
capDat
p540
(dp541
S'b'
F0.44968497812348079
sS'g'
F0.43490066439799058
sS'h'
F0.58827365471546245
sS'l'
F0.44968497812348079
sS's'
F0.062074100019963815
sS'r'
F0.42177118781396861
sg4
S'circle_261_img.jpg'
p542
sba(icapFunc
capDat
p543
(dp544
S'b'
F0.38995268189920596
sS'g'
F0.38505590666018474
sS'h'
F0.59186030958547653
sS'l'
F0.38995268189920596
sS's'
F0.022783429839951561
sS'r'
F0.38106822233025445
sg4
S'circle_262_img.jpg'
p545
sba(icapFunc
capDat
p546
(dp547
S'b'
F0.36189628909415006
sS'g'
F0.5664634581105169
sS'h'
F0.12416426085526495
sS'l'
F0.63648841354723706
sS's'
F0.43141731822382673
sS'r'
F0.63648841354723706
sg4
S'circle_263_img.jpg'
p548
sba(icapFunc
capDat
p549
(dp550
S'b'
F0.61796078431372559
sS'g'
F0.53154140333819477
sS'h'
F0.69768332914552433
sS'l'
F0.61796078431372559
sS's'
F0.13984606008859216
sS'r'
F0.54762404796629394
sg4
S'circle_264_img.jpg'
p551
sba(icapFunc
capDat
p552
(dp553
S'b'
F0.63198573975044559
sS'g'
F0.53464657267865823
sS'h'
F0.69553949967814255
sS'l'
F0.63198573975044559
sS's'
F0.15402114470213207
sS'r'
F0.55150931777669743
sg4
S'circle_265_img.jpg'
p554
sba(icapFunc
capDat
p555
(dp556
S'b'
F0.43031469777993842
sS'g'
F0.41248193161562141
sS'h'
F0.55053981515670902
sS'l'
F0.43031469777993842
sS's'
F0.1366619568950454
sS'r'
F0.37150704910063198
sg4
S'circle_266_img.jpg'
p557
sba(icapFunc
capDat
p558
(dp559
S'b'
F0.46196434937611408
sS'g'
F0.3986054124128991
sS'h'
F0.65892658260777648
sS'l'
F0.46196434937611408
sS's'
F0.14383071031036396
sS'r'
F0.39551968886728245
sg4
S'circle_267_img.jpg'
p560
sba(icapFunc
capDat
p561
(dp562
S'b'
F0.62989207583859985
sS'g'
F0.56517711878139687
sS'h'
F0.61582304326238158
sS'l'
F0.62989207583859985
sS's'
F0.14784011788846282
sS'r'
F0.53676875708961269
sg4
S'circle_268_img.jpg'
p563
sba(icapFunc
capDat
p564
(dp565
S'b'
F0.53660541241289905
sS'g'
F0.45043882677037761
sS'h'
F0.72230350764354601
sS'l'
F0.53660541241289905
sS's'
F0.16057718325103154
sS'r'
F0.47920304650785933
sg4
S'circle_269_img.jpg'
p566
sba(icapFunc
capDat
p567
(dp568
S'b'
F0.29904423918327661
sS'g'
F0.26247123642845566
sS'h'
F0.62013072730369612
sS'l'
F0.29904423918327661
sS's'
F0.16967576712282742
sS'r'
F0.24830367849619187
sg4
S'circle_26_img.jpg'
p569
sba(icapFunc
capDat
p570
(dp571
S'b'
F0.52057494733430554
sS'g'
F0.63337546588883487
sS'h'
F0.15287180933255681
sS'l'
F0.643554367201426
sS's'
F0.19109406467383844
sS'r'
F0.643554367201426
sg4
S'circle_270_img.jpg'
p572
sba(icapFunc
capDat
p573
(dp574
S'b'
F0.47237627613028682
sS'g'
F0.50749732620320853
sS'h'
F0.032139526938052075
sS'l'
F0.65450429427969536
sS's'
F0.27826863741183966
sS'r'
F0.65450429427969536
sg4
S'circle_271_img.jpg'
p575
sba(icapFunc
capDat
p576
(dp577
S'b'
F0.39968886728245018
sS'g'
F0.40760589855777024
sS'h'
F0.0069608768402383836
sS'l'
F0.58924906822233025
sS's'
F0.32169792225849886
sS'r'
F0.58924906822233025
sg4
S'circle_272_img.jpg'
p578
sba(icapFunc
capDat
p579
(dp580
S'b'
F0.52369956246961591
sS'g'
F0.45434127369956251
sS'h'
F0.63093940094788115
sS'l'
F0.52369956246961591
sS's'
F0.16857553956834534
sS'r'
F0.43541662615459403
sg4
S'circle_273_img.jpg'
p581
sba(icapFunc
capDat
p582
(dp583
S'b'
F0.27001166747690813
sS'g'
F0.35693696321503804
sS'h'
F0.14531584393912297
sS'l'
F0.36970863717387781
sS's'
F0.26966362067998201
sS'r'
F0.36970863717387781
sg4
S'circle_274_img.jpg'
p584
sba(icapFunc
capDat
p585
(dp586
S'b'
F0.53662712688381142
sS'g'
F0.59119040674120893
sS'h'
F0.18916377099977266
sS'l'
F0.59119040674120893
sS's'
F0.09229391958195686
sS'r'
F0.58382531194295895
sg4
S'circle_275_img.jpg'
p587
sba(icapFunc
capDat
p588
(dp589
S'b'
F0.3932364284556798
sS'g'
F0.33406935666828713
sS'h'
F0.6506889794651598
sS'l'
F0.3932364284556798
sS's'
F0.16641542991978278
sS'r'
F0.32779581915410794
sg4
S'circle_276_img.jpg'
p590
sba(icapFunc
capDat
p591
(dp592
S'b'
F0.49894636201588077
sS'g'
F0.62123351158645268
sS'h'
F0.16615628644000316
sS'l'
F0.62160913952357799
sS's'
F0.1973310392471225
sS'r'
F0.62160913952357799
sg4
S'circle_277_img.jpg'
p593
sba(icapFunc
capDat
p594
(dp595
S'b'
F0.49533884297520658
sS'g'
F0.3839176794684816
sS'h'
F0.63377552918360314
sS'l'
F0.49533884297520658
sS's'
F0.28024467929189828
sS'r'
F0.35652276778479985
sg4
S'circle_278_img.jpg'
p596
sba(icapFunc
capDat
p597
(dp598
S'b'
F0.21488543185869391
sS'g'
F0.19943769243234485
sS'h'
F0.64342974758964333
sS'l'
F0.21488543185869391
sS's'
F0.083534807678095693
sS'r'
F0.19693501863555338
sg4
S'circle_279_img.jpg'
p599
sba(icapFunc
capDat
p600
(dp601
S'b'
F0.30831145681413058
sS'g'
F0.34437173877815586
sS'h'
F0.15840366282844145
sS'l'
F0.34625279533300923
sS's'
F0.10957698834572152
sS'r'
F0.34625279533300923
sg4
S'circle_27_img.jpg'
p602
sba(icapFunc
capDat
p603
(dp604
S'b'
F0.25617695673310642
sS'g'
F0.23650429427969535
sS'h'
F0.65305787958101968
sS'l'
F0.25617695673310642
sS's'
F0.083621149899928235
sS'r'
F0.2347551450332199
sg4
S'circle_280_img.jpg'
p605
sba(icapFunc
capDat
p606
(dp607
S'b'
F0.7546316642359423
sS'g'
F0.62786809269162203
sS'h'
F0.6450889313254603
sS'l'
F0.7546316642359423
sS's'
F0.19296294133007169
sS'r'
F0.60901571868416782
sg4
S'circle_281_img.jpg'
p608
sba(icapFunc
capDat
p609
(dp610
S'b'
F0.50315605250364603
sS'g'
F0.48664657267865824
sS'h'
F0.97738026728051675
sS'l'
F0.60829168692270297
sS's'
F0.19997826184250067
sS'r'
F0.60829168692270297
sg4
S'circle_282_img.jpg'
p611
sba(icapFunc
capDat
p612
(dp613
S'b'
F0.28257656781720958
sS'g'
F0.24214551936477069
sS'h'
F0.6213537927559325
sS'l'
F0.28257656781720958
sS's'
F0.1965052930989003
sS'r'
F0.22704877653540753
sg4
S'circle_283_img.jpg'
p614
sba(icapFunc
capDat
p615
(dp616
S'b'
F0.46066634257008593
sS'g'
F0.57032571706368507
sS'h'
F0.095979925440918143
sS'l'
F0.65108701993193974
sS's'
F0.29246578649618771
sS'r'
F0.65108701993193974
sg4
S'circle_284_img.jpg'
p617
sba(icapFunc
capDat
p618
(dp619
S'b'
F0.39514114406093015
sS'g'
F0.44872889321017662
sS'h'
F0.15864631787408459
sS'l'
F0.45143801652892562
sS's'
F0.12470565261839946
sS'r'
F0.45143801652892562
sg4
S'circle_285_img.jpg'
p620
sba(icapFunc
capDat
p621
(dp622
S'b'
F0.67464300761626972
sS'g'
F0.67765029978933722
sS'h'
F0.038240894142082683
sS'l'
F0.68774979743963705
sS's'
F0.019057497177260446
sS'r'
F0.68774979743963705
sg4
S'circle_286_img.jpg'
p623
sba(icapFunc
capDat
p624
(dp625
S'b'
F0.55466893534273209
sS'g'
F0.46538778155890453
sS'h'
F0.67666689657091761
sS'l'
F0.55466893534273209
sS's'
F0.16096296023619996
sS'r'
F0.47074477394263492
sg4
S'circle_287_img.jpg'
p626
sba(icapFunc
capDat
p627
(dp628
S'b'
F0.67535504780424571
sS'g'
F0.58469453897261392
sS'h'
F0.69416967846720501
sS'l'
F0.67535504780424571
sS's'
F0.1342412544725809
sS'r'
F0.59965516123804896
sg4
S'circle_288_img.jpg'
p629
sba(icapFunc
capDat
p630
(dp631
S'b'
F0.37464138713336576
sS'g'
F0.33094214876033057
sS'h'
F0.774345985928376
sS'l'
F0.37464138713336576
sS's'
F0.11664284799767471
sS'r'
F0.35917517420191214
sg4
S'circle_289_img.jpg'
p632
sba(icapFunc
capDat
p633
(dp634
S'b'
F0.33184475773780592
sS'g'
F0.26528309836331226
sS'h'
F0.63654756253399125
sS'l'
F0.33184475773780592
sS's'
F0.24482399280403402
sS'r'
F0.25060119915734891
sg4
S'circle_28_img.jpg'
p635
sba(icapFunc
capDat
p636
(dp637
S'b'
F0.26818505914762597
sS'g'
F0.26762404796629397
sS'h'
F0.50937814907518719
sS'l'
F0.26818505914762597
sS's'
F0.037176504710055215
sS'r'
F0.25821487603305782
sg4
S'circle_290_img.jpg'
p638
sba(icapFunc
capDat
p639
(dp640
S'b'
F0.43795365418894827
sS'g'
F0.49359001782531192
sS'h'
F0.15838596996252238
sS'l'
F0.49649878463782204
sS's'
F0.11791595923357664
sS'r'
F0.49649878463782204
sg4
S'circle_291_img.jpg'
p641
sba(icapFunc
capDat
p642
(dp643
S'b'
F0.370766812510128
sS'g'
F0.35025765678172094
sS'h'
F0.62484118905013319
sS'l'
F0.370766812510128
sS's'
F0.073847837545596387
sS'r'
F0.34338648517258147
sg4
S'circle_292_img.jpg'
p644
sba(icapFunc
capDat
p645
(dp646
S'b'
F0.55901312591152164
sS'g'
F0.49319170312753202
sS'h'
F0.67543609136089378
sS'l'
F0.55901312591152164
sS's'
F0.11774575539109536
sS'r'
F0.49665499918975853
sg4
S'circle_293_img.jpg'
p647
sba(icapFunc
capDat
p648
(dp649
S'b'
F0.56078042456652089
sS'g'
F0.56441225085075353
sS'h'
F0.45475284864048654
sS'l'
F0.56441225085075353
sS's'
F0.023702062711671672
sS'r'
F0.5510345162858532
sg4
S'circle_294_img.jpg'
p650
sba(icapFunc
capDat
p651
(dp652
S'b'
F0.32938162372386975
sS'g'
F0.27937903095122346
sS'h'
F0.62057447603327998
sS'l'
F0.32938162372386975
sS's'
F0.2098391529331198
sS'r'
F0.26026446280991733
sg4
S'circle_295_img.jpg'
p653
sba(icapFunc
capDat
p654
(dp655
S'b'
F0.27006449521957543
sS'g'
F0.28434419056878951
sS'h'
F0.11928741607104197
sS'l'
F0.29001588073245826
sS's'
F0.068794113834366649
sS'r'
F0.29001588073245826
sg4
S'circle_296_img.jpg'
p656
sba(icapFunc
capDat
p657
(dp658
S'b'
F0.3548938583697942
sS'g'
F0.29525879111975367
sS'h'
F0.7922635739802758
sS'l'
F0.3548938583697942
sS's'
F0.16803634620214156
sS'r'
F0.34019867120401881
sg4
S'circle_297_img.jpg'
p659
sba(icapFunc
capDat
p660
(dp661
S'b'
F0.31044433641225083
sS'g'
F0.30059406903257169
sS'h'
F0.5720995772663221
sS'l'
F0.31044433641225083
sS's'
F0.073346654473021661
sS'r'
F0.28767428293631497
sg4
S'circle_298_img.jpg'
p662
sba(icapFunc
capDat
p663
(dp664
S'b'
F0.44719559228650141
sS'g'
F0.38819672662453408
sS'h'
F0.63811765277151844
sS'l'
F0.44719559228650141
sS's'
F0.15920096940040096
sS'r'
F0.37600162048290392
sg4
S'circle_299_img.jpg'
p665
sba(icapFunc
capDat
p666
(dp667
S'b'
F0.43882774266731484
sS'g'
F0.43443882677037754
sS'h'
F0.55181596951191547
sS'l'
F0.43882774266731484
sS's'
F0.03216979578331796
sS'r'
F0.42471074380165291
sg4
S'circle_29_img.jpg'
p668
sba(icapFunc
capDat
p669
(dp670
S'b'
F0.64378642035326517
sS'g'
F0.67188397342408035
sS'h'
F0.2101562950573844
sS'l'
F0.67188397342408035
sS's'
F0.041819055346153558
sS'r'
F0.66455226057365102
sg4
S'circle_2_img.jpg'
p671
sba(icapFunc
capDat
p672
(dp673
S'b'
F0.34235683033543995
sS'g'
F0.33758936963215042
sS'h'
F0.99517455893631668
sS'l'
F0.50225344352617085
sS's'
F0.32785056233355681
sS'r'
F0.50225344352617085
sg4
S'circle_300_img.jpg'
p674
sba(icapFunc
capDat
p675
(dp676
S'b'
F0.53788300113433796
sS'g'
F0.59000583373845406
sS'h'
F0.18765739157469299
sS'l'
F0.59000583373845406
sS's'
F0.088342910567256919
sS'r'
F0.58344125749473341
sg4
S'circle_301_img.jpg'
p677
sba(icapFunc
capDat
p678
(dp679
S'b'
F0.26161529735861289
sS'g'
F0.24046507859342084
sS'h'
F0.67465023981366556
sS'l'
F0.26161529735861289
sS's'
F0.080844732623567048
sS'r'
F0.24147820450494248
sg4
S'circle_302_img.jpg'
p680
sba(icapFunc
capDat
p681
(dp682
S'b'
F0.45388915896937287
sS'g'
F0.44626122184410955
sS'h'
F0.56528963676814092
sS'l'
F0.45388915896937287
sS's'
F0.04290044449204726
sS'r'
F0.43441711229946528
sg4
S'circle_303_img.jpg'
p683
sba(icapFunc
capDat
p684
(dp685
S'b'
F0.55387133365742991
sS'g'
F0.54164219737481767
sS'h'
F0.5958021042796503
sS'l'
F0.55387133365742991
sS's'
F0.038411440809376286
sS'r'
F0.53259633770863724
sg4
S'circle_304_img.jpg'
p686
sba(icapFunc
capDat
p687
(dp688
S'b'
F0.6030063198833252
sS'g'
F0.55442715929346953
sS'h'
F0.53921622492784194
sS'l'
F0.6030063198833252
sS's'
F0.34238214402421618
sS'r'
F0.39654772322151999
sg4
S'circle_305_img.jpg'
p689
sba(icapFunc
capDat
p690
(dp691
S'b'
F0.61090811861934846
sS'g'
F0.52977313239345325
sS'h'
F0.71142809969295362
sS'l'
F0.61090811861934846
sS's'
F0.13281045668415764
sS'r'
F0.55156344190568796
sg4
S'circle_306_img.jpg'
p692
sba(icapFunc
capDat
p693
(dp694
S'b'
F0.48292950899368009
sS'g'
F0.46060346783341433
sS'h'
F0.94373163173121999
sS'l'
F0.52673310646572669
sS's'
F0.12554676708291407
sS'r'
F0.52673310646572669
sg4
S'circle_307_img.jpg'
p695
sba(icapFunc
capDat
p696
(dp697
S'b'
F0.40438470264138709
sS'g'
F0.37754399611084105
sS'h'
F0.89284013684662744
sS'l'
F0.41928958029492791
sS's'
F0.09956265584926545
sS'r'
F0.41928958029492791
sg4
S'circle_308_img.jpg'
p698
sba(icapFunc
capDat
p699
(dp700
S'b'
F0.49861059795819151
sS'g'
F0.47021908928860801
sS'h'
F0.96266214530913419
sS'l'
F0.59695154756117319
sS's'
F0.21229940485174495
sS'r'
F0.59695154756117319
sg4
S'circle_309_img.jpg'
p701
sba(icapFunc
capDat
p702
(dp703
S'b'
F0.42223399773132392
sS'g'
F0.40947690811861936
sS'h'
F0.58084405448480947
sS'l'
F0.42223399773132392
sS's'
F0.062287237594632491
sS'r'
F0.39593420839410143
sg4
S'circle_30_img.jpg'
p704
sba(icapFunc
capDat
p705
(dp706
S'b'
F0.50323156700696803
sS'g'
F0.54067412088802458
sS'h'
F0.14792634988924278
sS'l'
F0.54541759844433646
sS's'
F0.077346296778272733
sS'r'
F0.54541759844433646
sg4
S'circle_310_img.jpg'
p707
sba(icapFunc
capDat
p708
(dp709
S'b'
F0.46844109544644302
sS'g'
F0.6521766326365257
sS'h'
F0.21376123917241122
sS'l'
F0.6521766326365257
sS's'
F0.2817266488793122
sS'r'
F0.60025895316804401
sg4
S'circle_311_img.jpg'
p710
sba(icapFunc
capDat
p711
(dp712
S'b'
F0.53834840382433957
sS'g'
F0.44971447091233185
sS'h'
F0.63396504799581477
sS'l'
F0.53834840382433957
sS's'
F0.20483012797744096
sS'r'
F0.42807843137254903
sg4
S'circle_312_img.jpg'
p713
sba(icapFunc
capDat
p714
(dp715
S'b'
F0.48877847998703611
sS'g'
F0.43051920272241129
sS'h'
F0.62100680700734012
sS'l'
F0.48877847998703611
sS's'
F0.16416930680858227
sS'r'
F0.40853605574461188
sg4
S'circle_313_img.jpg'
p716
sba(icapFunc
capDat
p717
(dp718
S'b'
F0.32396564576243725
sS'g'
F0.27873861610760009
sS'h'
F0.62429656311291859
sS'l'
F0.32396564576243725
sS's'
F0.18719262582083179
sS'r'
F0.26332166585642519
sg4
S'circle_314_img.jpg'
p719
sba(icapFunc
capDat
p720
(dp721
S'b'
F0.27025733268514013
sS'g'
F0.22770053475935828
sS'h'
F0.79230542714766961
sS'l'
F0.27025733268514013
sS's'
F0.15746769015648543
sS'r'
F0.25978123480797277
sg4
S'circle_315_img.jpg'
p722
sba(icapFunc
capDat
p723
(dp724
S'b'
F0.55820353265273048
sS'g'
F0.53181526494895481
sS'h'
F0.6088871236071659
sS'l'
F0.55820353265273048
sS's'
F0.07235866151630016
sS'r'
F0.51781267217630855
sg4
S'circle_316_img.jpg'
p725
sba(icapFunc
capDat
p726
(dp727
S'b'
F0.702143574785286
sS'g'
F0.70626024955436717
sS'h'
F0.044157523674439682
sS'l'
F0.71768141306109223
sS's'
F0.021650049719879799
sS'r'
F0.71768141306109223
sg4
S'circle_317_img.jpg'
p728
sba(icapFunc
capDat
p729
(dp730
S'b'
F0.39257527143088639
sS'g'
F0.35839734240803761
sS'h'
F0.65269005898756838
sS'l'
F0.39257527143088639
sS's'
F0.095030013431949778
sS'r'
F0.35526883811375792
sg4
S'circle_318_img.jpg'
p731
sba(icapFunc
capDat
p732
(dp733
S'b'
F0.5398813806514341
sS'g'
F0.43246799546264786
sS'h'
F0.63293287897165385
sS'l'
F0.5398813806514341
sS's'
F0.24944591320467469
sS'r'
F0.40521017663263653
sg4
S'circle_319_img.jpg'
p734
sba(icapFunc
capDat
p735
(dp736
S'b'
F0.53250072921730673
sS'g'
F0.42515540431048454
sS'h'
F0.65328744160559948
sS'l'
F0.53250072921730673
sS's'
F0.21918210916288244
sS'r'
F0.4157860962566845
sg4
S'circle_31_img.jpg'
p737
sba(icapFunc
capDat
p738
(dp739
S'b'
F0.24861740398638793
sS'g'
F0.20976989142764546
sS'h'
F0.62418771964723818
sS'l'
F0.24861740398638793
sS's'
F0.20970161997838629
sS'r'
F0.19648193161562147
sg4
S'circle_320_img.jpg'
p740
sba(icapFunc
capDat
p741
(dp742
S'b'
F0.51642813158321177
sS'g'
F0.49939523578026251
sS'h'
F0.59640819621007835
sS'l'
F0.51642813158321177
sS's'
F0.057018185195667911
sS'r'
F0.48698233673634744
sg4
S'circle_321_img.jpg'
p743
sba(icapFunc
capDat
p744
(dp745
S'b'
F0.59282158483227998
sS'g'
F0.54433900502349697
sS'h'
F0.61563280229421258
sS'l'
F0.59282158483227998
sS's'
F0.11787709161244761
sS'r'
F0.52294150056716893
sg4
S'circle_322_img.jpg'
p746
sba(icapFunc
capDat
p747
(dp748
S'b'
F0.47507826932425862
sS'g'
F0.43454415815913139
sS'h'
F0.61823742401467241
sS'l'
F0.47507826932425862
sS's'
F0.12026777564477772
sS'r'
F0.4179416626154594
sg4
S'circle_323_img.jpg'
p749
sba(icapFunc
capDat
p750
(dp751
S'b'
F0.47401814940852371
sS'g'
F0.55387100956084911
sS'h'
F0.093019375103822188
sS'l'
F0.61709382596013607
sS's'
F0.23185400749878021
sS'r'
F0.61709382596013607
sg4
S'circle_324_img.jpg'
p752
sba(icapFunc
capDat
p753
(dp754
S'b'
F0.62450040512072602
sS'g'
F0.50999675903419217
sS'h'
F0.62343928188099562
sS'l'
F0.62450040512072602
sS's'
F0.24756084396874559
sS'r'
F0.46989855777021555
sg4
S'circle_325_img.jpg'
p755
sba(icapFunc
capDat
p756
(dp757
S'b'
F0.38499951385512887
sS'g'
F0.33452989790957705
sS'h'
F0.73154213009341318
sS'l'
F0.38499951385512887
sS's'
F0.13109007707615702
sS'r'
F0.35417533625020259
sg4
S'circle_326_img.jpg'
p758
sba(icapFunc
capDat
p759
(dp760
S'b'
F0.28211570247933887
sS'g'
F0.37385707340787555
sS'h'
F0.17620618838347438
sS'l'
F0.37385707340787555
sS's'
F0.24539156125166439
sS'r'
F0.3686060606060606
sg4
S'circle_327_img.jpg'
p761
sba(icapFunc
capDat
p762
(dp763
S'b'
F0.22048679306433316
sS'g'
F0.49177864203532651
sS'h'
F0.10143784738304068
sS'l'
F0.66623075676551613
sS's'
F0.66905341606446611
sS'r'
F0.66623075676551613
sg4
S'circle_328_img.jpg'
p764
sba(icapFunc
capDat
p765
(dp766
S'b'
F0.55990957705396205
sS'g'
F0.3490014584346135
sS'h'
F0.65566554287280754
sS'l'
F0.55990957705396205
sS's'
F0.40330319327205766
sS'r'
F0.33409625668449194
sg4
S'circle_329_img.jpg'
p767
sba(icapFunc
capDat
p768
(dp769
S'b'
F0.56623205315183933
sS'g'
F0.49263652568465405
sS'h'
F0.63011482793000306
sS'l'
F0.56623205315183933
sS's'
F0.16648646421030408
sS'r'
F0.47196208070004864
sg4
S'circle_32_img.jpg'
p770
sba(icapFunc
capDat
p771
(dp772
S'b'
F0.32067509317776699
sS'g'
F0.39555825636039538
sS'h'
F0.15549319281527393
sS'l'
F0.40093923189110353
sS's'
F0.20019028403570283
sS'r'
F0.40093923189110353
sg4
S'circle_330_img.jpg'
p773
sba(icapFunc
capDat
p774
(dp775
S'b'
F0.43203565062388594
sS'g'
F0.5425678172095284
sS'h'
F0.14500408591562344
sS'l'
F0.55908053800032409
sS's'
F0.22723897317342232
sS'r'
F0.55908053800032409
sg4
S'circle_331_img.jpg'
p776
sba(icapFunc
capDat
p777
(dp778
S'b'
F0.56265856425214722
sS'g'
F0.60270264138713336
sS'h'
F0.17033706713285204
sS'l'
F0.60270264138713336
sS's'
F0.06644085222992191
sS'r'
F0.60182077459082806
sg4
S'circle_332_img.jpg'
p779
sba(icapFunc
capDat
p780
(dp781
S'b'
F0.49151579970831305
sS'g'
F0.5347632474477394
sS'h'
F0.14235422134033154
sS'l'
F0.54214940852374005
sS's'
F0.093394197280969302
sS'r'
F0.54214940852374005
sg4
S'circle_333_img.jpg'
p782
sba(icapFunc
capDat
p783
(dp784
S'b'
F0.48897747528763574
sS'g'
F0.4349447415329768
sS'h'
F0.62077286286986777
sS'l'
F0.48897747528763574
sS's'
F0.15249214576401499
sS'r'
F0.41441225085075356
sg4
S'circle_334_img.jpg'
p785
sba(icapFunc
capDat
p786
(dp787
S'b'
F0.33680084265111004
sS'g'
F0.3384799870361368
sS'h'
F0.47239714861106658
sS'l'
F0.3384799870361368
sS's'
F0.029953656714988931
sS'r'
F0.32834127369956245
sg4
S'circle_335_img.jpg'
p788
sba(icapFunc
capDat
p789
(dp790
S'b'
F0.66972030465078591
sS'g'
F0.65884200291686923
sS'h'
F0.57927678972106056
sS'l'
F0.66972030465078591
sS's'
F0.034148397568357393
sS'r'
F0.64685042942796944
sg4
S'circle_336_img.jpg'
p791
sba(icapFunc
capDat
p792
(dp793
S'b'
F0.44131421163506729
sS'g'
F0.53396337708637176
sS'h'
F0.091735997591949683
sS'l'
F0.60963992869875228
sS's'
F0.27610677900144814
sS'r'
F0.60963992869875228
sg4
S'circle_337_img.jpg'
p794
sba(icapFunc
capDat
p795
(dp796
S'b'
F0.24349376114081997
sS'g'
F0.21472046669907632
sS'h'
F0.98316486823920979
sS'l'
F0.49957413709285364
sS's'
F0.57019298887530845
sS'r'
F0.49957413709285364
sg4
S'circle_338_img.jpg'
p797
sba(icapFunc
capDat
p798
(dp799
S'b'
F0.39831988332523088
sS'g'
F0.32976243720628745
sS'h'
F0.62827099091756933
sS'l'
F0.39831988332523088
sS's'
F0.22363663288354249
sS'r'
F0.30924096580781074
sg4
S'circle_339_img.jpg'
p800
sba(icapFunc
capDat
p801
(dp802
S'b'
F0.82235196888672824
sS'g'
F0.78859050397018304
sS'h'
F0.61839524105026078
sS'l'
F0.82235196888672824
sS's'
F0.057793373997533572
sS'r'
F0.77482547399124946
sg4
S'circle_33_img.jpg'
p803
sba(icapFunc
capDat
p804
(dp805
S'b'
F0.30239734240803762
sS'g'
F0.3324521147301896
sS'h'
F0.20039036383634934
sS'l'
F0.3324521147301896
sS's'
F0.090403312207966352
sS'r'
F0.32637076648841351
sg4
S'circle_340_img.jpg'
p806
sba(icapFunc
capDat
p807
(dp808
S'b'
F0.39825473991249388
sS'g'
F0.35091265597147953
sS'h'
F0.62092839202012007
sS'l'
F0.39825473991249388
sS's'
F0.1638350768830133
sS'r'
F0.33300664397990598
sg4
S'circle_341_img.jpg'
p809
sba(icapFunc
capDat
p810
(dp811
S'b'
F0.30800875060768113
sS'g'
F0.52013774104683197
sS'h'
F0.12904200128623247
sS'l'
F0.58198800842651111
sS's'
F0.47076443818760561
sS'r'
F0.58198800842651111
sg4
S'circle_342_img.jpg'
p812
sba(icapFunc
capDat
p813
(dp814
S'b'
F0.38411894344514663
sS'g'
F0.32712105007292169
sS'h'
F0.6292168679124952
sS'l'
F0.38411894344514663
sS's'
F0.1913914878429698
sS'r'
F0.31060184735051044
sg4
S'circle_343_img.jpg'
p815
sba(icapFunc
capDat
p816
(dp817
S'b'
F0.54039507373197215
sS'g'
F0.48181137578998545
sS'h'
F0.62002703862033981
sS'l'
F0.54039507373197215
sS's'
F0.15053415849570795
sS'r'
F0.45904715605250368
sg4
S'circle_344_img.jpg'
p818
sba(icapFunc
capDat
p819
(dp820
S'b'
F0.39811894344514664
sS'g'
F0.39989693728731163
sS'h'
F0.0014758118579303869
sS'l'
F0.59891168368173719
sS's'
F0.33526268681592825
sS'r'
F0.59891168368173719
sg4
S'circle_345_img.jpg'
p821
sba(icapFunc
capDat
p822
(dp823
S'b'
F0.42218214227839895
sS'g'
F0.50353168044077135
sS'h'
F0.094774854781560627
sS'l'
F0.56523966942148762
sS's'
F0.25309180314521346
sS'r'
F0.56523966942148762
sg4
S'circle_346_img.jpg'
p824
sba(icapFunc
capDat
p825
(dp826
S'b'
F0.44625214713984768
sS'g'
F0.44344255388105658
sS'h'
F0.5307476768106687
sS'l'
F0.44625214713984768
sS's'
F0.034127114969667555
sS'r'
F0.43102284880894509
sg4
S'circle_347_img.jpg'
p827
sba(icapFunc
capDat
p828
(dp829
S'b'
F0.28245794846864369
sS'g'
F0.38731777669745587
sS'h'
F0.089305479419537148
sS'l'
F0.47815297358612868
sS's'
F0.40927283929613556
sS'r'
F0.47815297358612868
sg4
S'circle_348_img.jpg'
p830
sba(icapFunc
capDat
p831
(dp832
S'b'
F0.40482936315021872
sS'g'
F0.50624210014584348
sS'h'
F0.09701088574064709
sS'l'
F0.57905849943283094
sS's'
F0.30088347974041313
sS'r'
F0.57905849943283094
sg4
S'circle_349_img.jpg'
p833
sba(icapFunc
capDat
p834
(dp835
S'b'
F0.63279987036136764
sS'g'
F0.67962015880732463
sS'h'
F0.1731204083139514
sS'l'
F0.67962015880732463
sS's'
F0.068891847658142741
sS'r'
F0.67780716253443529
sg4
S'circle_34_img.jpg'
p836
sba(icapFunc
capDat
p837
(dp838
S'b'
F0.48217663263652566
sS'g'
F0.40529865499918977
sS'h'
F0.62702541182972238
sS'l'
F0.48217663263652566
sS's'
F0.20919626605437994
sS'r'
F0.38130708151029002
sg4
S'circle_350_img.jpg'
p839
sba(icapFunc
capDat
p840
(dp841
S'b'
F0.18223659050397018
sS'g'
F0.17850494247285689
sS'h'
F0.70693648312199719
sS'l'
F0.18223659050397018
sS's'
F0.020476941654766011
sS'r'
F0.17940657916058986
sg4
S'circle_351_img.jpg'
p842
sba(icapFunc
capDat
p843
(dp844
S'b'
F0.4227039377734565
sS'g'
F0.35140495867768595
sS'h'
F0.64031311229488119
sS'l'
F0.4227039377734565
sS's'
F0.20035376571876778
sS'r'
F0.3380136120563928
sg4
S'circle_352_img.jpg'
p845
sba(icapFunc
capDat
p846
(dp847
S'b'
F0.30639896289094148
sS'g'
F0.36069097391022525
sS'h'
F0.037250658654299461
sS'l'
F0.54931194295900176
sS's'
F0.4422131781070528
sS'r'
F0.54931194295900176
sg4
S'circle_353_img.jpg'
p848
sba(icapFunc
capDat
p849
(dp850
S'b'
F0.30305558256360393
sS'g'
F0.28996791443850267
sS'h'
F0.986364775185255
sS'l'
F0.44994166261545943
sS's'
F0.35554331031949266
sS'r'
F0.44994166261545943
sg4
S'circle_354_img.jpg'
p851
sba(icapFunc
capDat
p852
(dp853
S'b'
F0.52138616107600066
sS'g'
F0.47482320531518396
sS'h'
F0.61568359365564007
sS'l'
F0.52138616107600066
sS's'
F0.12866428757466267
sS'r'
F0.45430238210986873
sg4
S'circle_355_img.jpg'
p854
sba(icapFunc
capDat
p855
(dp856
S'b'
F0.39359617566034677
sS'g'
F0.42739880084265114
sS'h'
F0.21331025842617649
sS'l'
F0.42739880084265114
sS's'
F0.079089190506991994
sS'r'
F0.41793874574623235
sg4
S'circle_356_img.jpg'
p857
sba(icapFunc
capDat
p858
(dp859
S'b'
F0.3101902446929185
sS'g'
F0.28196078431372551
sS'h'
F0.62851906937214475
sS'l'
F0.3101902446929185
sS's'
F0.11802000225683644
sS'r'
F0.27358159131421161
sg4
S'circle_357_img.jpg'
p860
sba(icapFunc
capDat
p861
(dp862
S'b'
F0.59101928374655655
sS'g'
F0.55952649489547879
sS'h'
F0.52411179100848138
sS'l'
F0.59101928374655655
sS's'
F0.3683229234641559
sS'r'
F0.37333333333333335
sg4
S'circle_358_img.jpg'
p863
sba(icapFunc
capDat
p864
(dp865
S'b'
F0.5470996596985902
sS'g'
F0.50137125263328475
sS'h'
F0.92132831065657217
sS'l'
F0.59824728569113594
sS's'
F0.16193309251028765
sS'r'
F0.59824728569113594
sg4
S'circle_359_img.jpg'
p866
sba(icapFunc
capDat
p867
(dp868
S'b'
F0.49937060444012316
sS'g'
F0.43269291848970992
sS'h'
F0.62889729266440619
sS'l'
F0.49937060444012316
sS's'
F0.17264837669586347
sS'r'
F0.41315508021390374
sg4
S'circle_35_img.jpg'
p869
sba(icapFunc
capDat
p870
(dp871
S'b'
F0.30169340463458111
sS'g'
F0.23013385188786259
sS'h'
F0.95060098477200972
sS'l'
F0.47156765516123805
sS's'
F0.51198126213899176
sS'r'
F0.47156765516123805
sg4
S'circle_360_img.jpg'
p872
sba(icapFunc
capDat
p873
(dp874
S'b'
F0.24883843785448065
sS'g'
F0.26716253443526167
sS'h'
F0.011694204585599147
sS'l'
F0.50999481445470751
sS's'
F0.5120765333260463
sS'r'
F0.50999481445470751
sg4
S'circle_361_img.jpg'
p875
sba(icapFunc
capDat
p876
(dp877
S'b'
F0.40870491006319881
sS'g'
F0.43762955760816719
sS'h'
F0.19889183950160785
sS'l'
F0.43762955760816719
sS's'
F0.066093907603165455
sS'r'
F0.432036947010209
sg4
S'circle_362_img.jpg'
p878
sba(icapFunc
capDat
p879
(dp880
S'b'
F0.4557925781883001
sS'g'
F0.39684362339977314
sS'h'
F0.63766552832827739
sS'l'
F0.4557925781883001
sS's'
F0.15657859932250051
sS'r'
F0.38442521471398478
sg4
S'circle_363_img.jpg'
p881
sba(icapFunc
capDat
p882
(dp883
S'b'
F0.52511132717549824
sS'g'
F0.46012477718360068
sS'h'
F0.62180122654070813
sS'l'
F0.52511132717549824
sS's'
F0.1693437540696357
sS'r'
F0.43618700372711067
sg4
S'circle_364_img.jpg'
p884
sba(icapFunc
capDat
p885
(dp886
S'b'
F0.6772001296386323
sS'g'
F0.58264171122994646
sS'h'
F0.68944966182250245
sS'l'
F0.6772001296386323
sS's'
F0.1396314239619891
sS'r'
F0.595567655161238
sg4
S'circle_365_img.jpg'
p887
sba(icapFunc
capDat
p888
(dp889
S'b'
F0.36151417922540918
sS'g'
F0.29449100631988334
sS'h'
F0.62850195797712571
sS'l'
F0.36151417922540918
sS's'
F0.24045767993602588
sS'r'
F0.27458531842489065
sg4
S'circle_366_img.jpg'
p890
sba(icapFunc
capDat
p891
(dp892
S'b'
F0.43055226057365092
sS'g'
F0.36427353751417924
sS'h'
F0.64728255076672225
sS'l'
F0.43055226057365092
sS's'
F0.17419902158048095
sS'r'
F0.35555047804245665
sg4
S'circle_367_img.jpg'
p893
sba(icapFunc
capDat
p894
(dp895
S'b'
F0.35359099011505429
sS'g'
F0.30823821098687409
sS'h'
F0.61810918617625565
sS'l'
F0.35359099011505429
sS's'
F0.18099550414526053
sS'r'
F0.28959261059795821
sg4
S'circle_368_img.jpg'
p896
sba(icapFunc
capDat
p897
(dp898
S'b'
F0.32590536379841195
sS'g'
F0.33841484362339974
sS'h'
F0.4534323128931616
sS'l'
F0.33841484362339974
sS's'
F0.13229819791434214
sS'r'
F0.29364316966456006
sg4
S'circle_369_img.jpg'
p899
sba(icapFunc
capDat
p900
(dp901
S'b'
F0.33653054610273858
sS'g'
F0.41425279533300924
sS'h'
F0.16727200195708866
sS'l'
F0.41425279533300924
sS's'
F0.18762033740240994
sS'r'
F0.41397050721114892
sg4
S'circle_36_img.jpg'
p902
sba(icapFunc
capDat
p903
(dp904
S'b'
F0.28636590503970183
sS'g'
F0.27442715929346945
sS'h'
F0.61550835340156518
sS'l'
F0.28636590503970183
sS's'
F0.06015514123194006
sS'r'
F0.26913952357802623
sg4
S'circle_370_img.jpg'
p905
sba(icapFunc
capDat
p906
(dp907
S'b'
F0.39741208880246315
sS'g'
F0.36420158807324582
sS'h'
F0.70037864371383141
sS'l'
F0.39741208880246315
sS's'
F0.083566911186048171
sS'r'
F0.37091913790309516
sg4
S'circle_371_img.jpg'
p908
sba(icapFunc
capDat
p909
(dp910
S'b'
F0.30217339167071788
sS'g'
F0.25580521795495054
sS'h'
F0.74046672118581469
sS'l'
F0.30217339167071788
sS's'
F0.15344889720235633
sS'r'
F0.27633706044401229
sg4
S'circle_372_img.jpg'
p911
sba(icapFunc
capDat
p912
(dp913
S'b'
F0.33975530708151025
sS'g'
F0.43044239183276617
sS'h'
F0.086706429256242556
sS'l'
F0.51407356992383724
sS's'
F0.33909205421347216
sS'r'
F0.51407356992383724
sg4
S'circle_373_img.jpg'
p914
sba(icapFunc
capDat
p915
(dp916
S'b'
F0.35276486793064332
sS'g'
F0.3704154918165613
sS'h'
F0.18896090780558503
sS'l'
F0.3704154918165613
sS's'
F0.047650879285197387
sS'r'
F0.36805444822557126
sg4
S'circle_374_img.jpg'
p917
sba(icapFunc
capDat
p918
(dp919
S'b'
F0.59168659860638462
sS'g'
F0.53291103548857566
sS'h'
F0.85255215701578957
sS'l'
F0.59934759358288769
sS's'
F0.11084812687268109
sS'r'
F0.59934759358288769
sg4
S'circle_375_img.jpg'
p920
sba(icapFunc
capDat
p921
(dp922
S'b'
F0.35859471722573327
sS'g'
F0.32098428131583212
sS'h'
F0.61580150081826535
sS'l'
F0.35859471722573327
sS's'
F0.15095205902874423
sS'r'
F0.30446410630367854
sg4
S'circle_376_img.jpg'
p923
sba(icapFunc
capDat
p924
(dp925
S'b'
F0.59454707502835835
sS'g'
F0.48419672662453411
sS'h'
F0.62521108404528236
sS'l'
F0.59454707502835835
sS's'
F0.24705487946142621
sS'r'
F0.44766131907308376
sg4
S'circle_377_img.jpg'
p926
sba(icapFunc
capDat
p927
(dp928
S'b'
F0.57228779776373351
sS'g'
F0.6789392318911035
sS'h'
F0.16117803331971697
sS'l'
F0.68257105817533625
sS's'
F0.16157037291679835
sS'r'
F0.68257105817533625
sg4
S'circle_378_img.jpg'
p929
sba(icapFunc
capDat
p930
(dp931
S'b'
F0.49554496840058337
sS'g'
F0.42737416950251178
sS'h'
F0.62611369724702426
sS'l'
F0.49554496840058337
sS's'
F0.18180331771532318
sS'r'
F0.40545324906822233
sg4
S'circle_379_img.jpg'
p932
sba(icapFunc
capDat
p933
(dp934
S'b'
F0.51124971641549188
sS'g'
F0.61696418732782365
sS'h'
F0.16480830251217682
sS'l'
F0.61815621455193648
sS's'
F0.17294414521729681
sS'r'
F0.61815621455193648
sg4
S'circle_37_img.jpg'
p935
sba(icapFunc
capDat
p936
(dp937
S'b'
F0.4994438502673797
sS'g'
F0.5047318100794036
sS'h'
F0.44421079266082703
sS'l'
F0.5047318100794036
sS's'
F0.031298680450765559
sS'r'
F0.48893437044239185
sg4
S'circle_380_img.jpg'
p938
sba(icapFunc
capDat
p939
(dp940
S'b'
F0.76976405768919143
sS'g'
F0.6029217306757414
sS'h'
F0.64822800285864501
sS'l'
F0.76976405768919143
sS's'
F0.24370649406532019
sS'r'
F0.58216755793226371
sg4
S'circle_381_img.jpg'
p941
sba(icapFunc
capDat
p942
(dp943
S'b'
F0.80932198995300608
sS'g'
F0.57866634257008587
sS'h'
F0.61633439616738972
sS'l'
F0.80932198995300608
sS's'
F0.40830374308765593
sS'r'
F0.47887279209204342
sg4
S'circle_382_img.jpg'
p944
sba(icapFunc
capDat
p945
(dp946
S'b'
F0.51769146005509636
sS'g'
F0.66373262032085556
sS'h'
F0.16057864045009487
sS'l'
F0.6692694863069194
sS's'
F0.22648279856331455
sS'r'
F0.6692694863069194
sg4
S'circle_383_img.jpg'
p947
sba(icapFunc
capDat
p948
(dp949
S'b'
F0.56519883325230924
sS'g'
F0.57667379679144393
sS'h'
F0.34261062064918796
sS'l'
F0.57667379679144393
sS's'
F0.021071450048248633
sS'r'
F0.56452244368821913
sg4
S'circle_384_img.jpg'
p950
sba(icapFunc
capDat
p951
(dp952
S'b'
F0.6754853346297196
sS'g'
F0.64698201263976662
sS'h'
F0.69451108811746531
sS'l'
F0.6754853346297196
sS's'
F0.042196803585051373
sS'r'
F0.65174396370118304
sg4
S'circle_385_img.jpg'
p953
sba(icapFunc
capDat
p954
(dp955
S'b'
F0.27168627450980393
sS'g'
F0.24915702479338844
sS'h'
F0.64285127142851251
sS'l'
F0.27168627450980393
sS's'
F0.096748372874238972
sS'r'
F0.24540106951871657
sg4
S'circle_386_img.jpg'
p956
sba(icapFunc
capDat
p957
(dp958
S'b'
F0.18894992707826933
sS'g'
F0.1497792902284881
sS'h'
F0.6455297474984647
sS'l'
F0.18894992707826933
sS's'
F0.23741648870935925
sS'r'
F0.14409009884945714
sg4
S'circle_387_img.jpg'
p959
sba(icapFunc
capDat
p960
(dp961
S'b'
F0.3565383244206774
sS'g'
F0.30067541727434777
sS'h'
F0.54771566100163438
sS'l'
F0.3565383244206774
sS's'
F0.54727438166928621
sS'r'
F0.16141403338194782
sg4
S'circle_388_img.jpg'
p962
sba(icapFunc
capDat
p963
(dp964
S'b'
F0.34910095608491332
sS'g'
F0.29480311132717546
sS'h'
F0.64567106455276002
sS'l'
F0.34910095608491332
sS's'
F0.17795369451451098
sS'r'
F0.28697715119105494
sg4
S'circle_389_img.jpg'
p965
sba(icapFunc
capDat
p966
(dp967
S'b'
F0.35377961432506883
sS'g'
F0.33339296710419708
sS'h'
F0.60203740652424254
sS'l'
F0.35377961432506883
sS's'
F0.094124426179498261
sS'r'
F0.32048031113271752
sg4
S'circle_38_img.jpg'
p968
sba(icapFunc
capDat
p969
(dp970
S'b'
F0.46115281153783827
sS'g'
F0.48667412088802464
sS'h'
F0.023690602761667363
sS'l'
F0.64069875222816397
sS's'
F0.28023457212288477
sS'r'
F0.64069875222816397
sg4
S'circle_390_img.jpg'
p971
sba(icapFunc
capDat
p972
(dp973
S'b'
F0.30697455841840865
sS'g'
F0.39992254091719331
sS'h'
F0.090079792847666165
sS'l'
F0.47894798249878462
sS's'
F0.35906493056542393
sS'r'
F0.47894798249878462
sg4
S'circle_391_img.jpg'
p974
sba(icapFunc
capDat
p975
(dp976
S'b'
F0.45872079079565709
sS'g'
F0.45375595527467183
sS'h'
F0.99308439128287496
sS'l'
F0.57340884783665524
sS's'
F0.20866942150161671
sS'r'
F0.57340884783665524
sg4
S'circle_392_img.jpg'
p977
sba(icapFunc
capDat
p978
(dp979
S'b'
F0.40688705234159783
sS'g'
F0.48339620807000488
sS'h'
F0.14784620972994642
sS'l'
F0.49313563441905689
sS's'
F0.17489829583916608
sS'r'
F0.49313563441905689
sg4
S'circle_393_img.jpg'
p980
sba(icapFunc
capDat
p981
(dp982
S'b'
F0.35546102738616103
sS'g'
F0.57662777507697294
sS'h'
F0.12395928585675066
sS'l'
F0.65282579808783014
sS's'
F0.45550401282037284
sS'r'
F0.65282579808783014
sg4
S'circle_394_img.jpg'
p983
sba(icapFunc
capDat
p984
(dp985
S'b'
F0.40246054124128994
sS'g'
F0.39724291038729542
sS'h'
F0.51578249778933272
sS'l'
F0.40246054124128994
sS's'
F0.13690618074524574
sS'r'
F0.34736120563928047
sg4
S'circle_395_img.jpg'
p986
sba(icapFunc
capDat
p987
(dp988
S'b'
F0.38969113595851562
sS'g'
F0.38359066601847353
sS'h'
F0.55539467566024492
sS'l'
F0.38969113595851562
sS's'
F0.047100280108317419
sS'r'
F0.37133657429914113
sg4
S'circle_396_img.jpg'
p989
sba(icapFunc
capDat
p990
(dp991
S'b'
F0.45642067736185382
sS'g'
F0.63785480473181
sS'h'
F0.21774246849405601
sS'l'
F0.63785480473181
sS's'
F0.28444424346108244
sS'r'
F0.58225344352617081
sg4
S'circle_397_img.jpg'
p992
sba(icapFunc
capDat
p993
(dp994
S'b'
F0.44361464916545129
sS'g'
F0.39374169502511747
sS'h'
F0.66981732874976441
sS'l'
F0.44361464916545129
sS's'
F0.11242404693838937
sS'r'
F0.39468449197860961
sg4
S'circle_398_img.jpg'
p995
sba(icapFunc
capDat
p996
(dp997
S'b'
F0.51013450008102412
sS'g'
F0.50290552584670234
sS'h'
F0.99028645486304367
sS'l'
F0.62694150056716902
sS's'
F0.1978429799403234
sS'r'
F0.62694150056716902
sg4
S'circle_399_img.jpg'
p998
sba(icapFunc
capDat
p999
(dp1000
S'b'
F0.54914081996434938
sS'g'
F0.62753945875871009
sS'h'
F0.08853764054813773
sS'l'
F0.69672143898881866
sS's'
F0.21182155559711108
sS'r'
F0.69672143898881866
sg4
S'circle_39_img.jpg'
p1001
sba(icapFunc
capDat
p1002
(dp1003
S'b'
F0.61364154918165614
sS'g'
F0.71041030627126878
sS'h'
F0.16377868101608822
sS'l'
F0.71211667476908114
sS's'
F0.13828510000746386
sS'r'
F0.71211667476908114
sg4
S'circle_3_img.jpg'
p1004
sba(icapFunc
capDat
p1005
(dp1006
S'b'
F0.32147561173229622
sS'g'
F0.28254350996596989
sS'h'
F0.6163683954578304
sS'l'
F0.32147561173229622
sS's'
F0.17344968762381366
sS'r'
F0.26571576729865504
sg4
S'circle_400_img.jpg'
p1007
sba(icapFunc
capDat
p1008
(dp1009
S'b'
F0.54075514503321986
sS'g'
F0.44759487927402364
sS'h'
F0.83183798000320053
sS'l'
F0.54075514503321986
sS's'
F0.17227809409649383
sS'r'
F0.53991929995138543
sg4
S'circle_401_img.jpg'
p1010
sba(icapFunc
capDat
p1011
(dp1012
S'b'
F0.61376178901312595
sS'g'
F0.4233022200615783
sS'h'
F0.64881982525421511
sS'l'
F0.61376178901312595
sS's'
F0.34752888694566686
sS'r'
F0.40046183762761306
sg4
S'circle_402_img.jpg'
p1013
sba(icapFunc
capDat
p1014
(dp1015
S'b'
F0.56372646248582081
sS'g'
F0.47272079079565715
sS'h'
F0.68361538662431098
sS'l'
F0.56372646248582081
sS's'
F0.16143586960396183
sS'r'
F0.48197536865986063
sg4
S'circle_403_img.jpg'
p1016
sba(icapFunc
capDat
p1017
(dp1018
S'b'
F0.31047480149084428
sS'g'
F0.38252179549505749
sS'h'
F0.15376001372282919
sS'l'
F0.38856943769243235
sS's'
F0.20097987290344482
sS'r'
F0.38856943769243235
sg4
S'circle_404_img.jpg'
p1019
sba(icapFunc
capDat
p1020
(dp1021
S'b'
F0.23424112785610113
sS'g'
F0.3170153945875871
sS'h'
F0.097591917524512586
sS'l'
F0.37560233349538164
sS's'
F0.37635869916931353
sS'r'
F0.37560233349538164
sg4
S'circle_405_img.jpg'
p1022
sba(icapFunc
capDat
p1023
(dp1024
S'b'
F0.35344093339815263
sS'g'
F0.29232733754658891
sS'h'
F0.63930826809930341
sS'l'
F0.35344093339815263
sS's'
F0.20686777767385392
sS'r'
F0.28032539296710418
sg4
S'circle_406_img.jpg'
p1025
sba(icapFunc
capDat
p1026
(dp1027
S'b'
F0.65849943283098367
sS'g'
F0.62893793550478039
sS'h'
F0.61320698514353822
sS'l'
F0.65849943283098367
sS's'
F0.066091642878236087
sS'r'
F0.61497812348079728
sg4
S'circle_407_img.jpg'
p1028
sba(icapFunc
capDat
p1029
(dp1030
S'b'
F0.43146005509641877
sS'g'
F0.39057851239669422
sS'h'
F0.77476745415147186
sS'l'
F0.43146005509641877
sS's'
F0.094751628144553762
sS'r'
F0.4170944741532977
sg4
S'circle_408_img.jpg'
p1031
sba(icapFunc
capDat
p1032
(dp1033
S'b'
F0.39023821098687411
sS'g'
F0.50010209042294607
sS'h'
F0.098973953807775364
sS'l'
F0.57524291038729536
sS's'
F0.32161143763747152
sS'r'
F0.57524291038729536
sg4
S'circle_409_img.jpg'
p1034
sba(icapFunc
capDat
p1035
(dp1036
S'b'
F0.56199805542051529
sS'g'
F0.61902965483714145
sS'h'
F0.17973605499390985
sS'l'
F0.61902965483714145
sS's'
F0.092130641837555302
sS'r'
F0.61455744611894347
sg4
S'circle_40_img.jpg'
p1037
sba(icapFunc
capDat
p1038
(dp1039
S'b'
F0.41112882839086046
sS'g'
F0.35659860638470264
sS'h'
F0.63679372605644335
sS'l'
F0.41112882839086046
sS's'
F0.16160020432970859
sS'r'
F0.34469032571706371
sg4
S'circle_410_img.jpg'
p1040
sba(icapFunc
capDat
p1041
(dp1042
S'b'
F0.39901215362177933
sS'g'
F0.29934143574785282
sS'h'
F0.63113561548039365
sS'l'
F0.39901215362177933
sS's'
F0.31747501527025107
sS'r'
F0.27233576405768917
sg4
S'circle_411_img.jpg'
p1043
sba(icapFunc
capDat
p1044
(dp1045
S'b'
F0.27677783179387461
sS'g'
F0.22677880408361692
sS'h'
F0.73652056108691133
sS'l'
F0.27677783179387461
sS's'
F0.18064679308382464
sS'r'
F0.24773456490034029
sg4
S'circle_412_img.jpg'
p1046
sba(icapFunc
capDat
p1047
(dp1048
S'b'
F0.32480246313401395
sS'g'
F0.27941986712040184
sS'h'
F0.97729435228875805
sS'l'
F0.61254253767622757
sS's'
F0.54383597883597889
sS'r'
F0.61254253767622757
sg4
S'circle_413_img.jpg'
p1049
sba(icapFunc
capDat
p1050
(dp1051
S'b'
F0.75160200939880084
sS'g'
F0.68395041322314043
sS'h'
F0.62077916066355376
sS'l'
F0.75160200939880084
sS's'
F0.12420722462644483
sS'r'
F0.65824760978771668
sg4
S'circle_414_img.jpg'
p1052
sba(icapFunc
capDat
p1053
(dp1054
S'b'
F0.51821001458434612
sS'g'
F0.48402171447091236
sS'h'
F0.64115090547567244
sS'l'
F0.51821001458434612
sS's'
F0.077899879732597238
sS'r'
F0.4778415167719981
sg4
S'circle_415_img.jpg'
p1055
sba(icapFunc
capDat
p1056
(dp1057
S'b'
F0.42325328147788044
sS'g'
F0.35663847026413875
sS'h'
F0.62895947758674986
sS'l'
F0.42325328147788044
sS's'
F0.20340702692603388
sS'r'
F0.33716058985577702
sg4
S'circle_416_img.jpg'
p1058
sba(icapFunc
capDat
p1059
(dp1060
S'b'
F0.53631340139361527
sS'g'
F0.48326981040350026
sS'h'
F0.54410500519291383
sS'l'
F0.53631340139361527
sS's'
F0.37374478409712381
sS'r'
F0.33586906498136443
sg4
S'circle_417_img.jpg'
p1061
sba(icapFunc
capDat
p1062
(dp1063
S'b'
F0.61243850267379674
sS'g'
F0.48357413709285368
sS'h'
F0.62843827768259308
sS'l'
F0.61243850267379674
sS's'
F0.27303896587727322
sS'r'
F0.44521892724031764
sg4
S'circle_418_img.jpg'
p1064
sba(icapFunc
capDat
p1065
(dp1066
S'b'
F0.42341468157510936
sS'g'
F0.35985253605574458
sS'h'
F0.62679291587308361
sS'l'
F0.42341468157510936
sS's'
F0.19732694654046171
sS'r'
F0.33986355533949114
sg4
S'circle_419_img.jpg'
p1067
sba(icapFunc
capDat
p1068
(dp1069
S'b'
F0.37877426673148595
sS'g'
F0.39958807324582724
sS'h'
F0.17875513201808291
sS'l'
F0.39958807324582724
sS's'
F0.052088157550029261
sS'r'
F0.39807843137254906
sg4
S'circle_41_img.jpg'
p1070
sba(icapFunc
capDat
p1071
(dp1072
S'b'
F0.54940366229136284
sS'g'
F0.49154561659374491
sS'h'
F0.54629446663378456
sS'l'
F0.54940366229136284
sS's'
F0.37913325094311251
sS'r'
F0.34110646572678655
sg4
S'circle_420_img.jpg'
p1073
sba(icapFunc
capDat
p1074
(dp1075
S'b'
F0.59379906011991579
sS'g'
F0.60685204991087349
sS'h'
F0.33241878750258702
sS'l'
F0.60685204991087349
sS's'
F0.021509344481698226
sS'r'
F0.59387068546426836
sg4
S'circle_421_img.jpg'
p1076
sba(icapFunc
capDat
p1077
(dp1078
S'b'
F0.46345422135796466
sS'g'
F0.39750802139037433
sS'h'
F0.64411246433964242
sS'l'
F0.46345422135796466
sS's'
F0.16456222010254626
sS'r'
F0.38718716577540108
sg4
S'circle_422_img.jpg'
p1079
sba(icapFunc
capDat
p1080
(dp1081
S'b'
F0.22844563279857397
sS'g'
F0.44723415977961434
sS'h'
F0.11824523864073468
sS'l'
F0.53682806676389561
sS's'
F0.57445288921704696
sS'r'
F0.53682806676389561
sg4
S'circle_423_img.jpg'
p1082
sba(icapFunc
capDat
p1083
(dp1084
S'b'
F0.39573683357640577
sS'g'
F0.33030367849619185
sS'h'
F0.63831103438354198
sS'l'
F0.39573683357640577
sS's'
F0.19924310795825878
sS'r'
F0.31688899692108247
sg4
S'circle_424_img.jpg'
p1085
sba(icapFunc
capDat
p1086
(dp1087
S'b'
F0.29062712688381137
sS'g'
F0.32338810565548531
sS'h'
F0.17911176183504152
sS'l'
F0.32338810565548531
sS's'
F0.10130545372183589
sS'r'
F0.32094182466374976
sg4
S'circle_425_img.jpg'
p1088
sba(icapFunc
capDat
p1089
(dp1090
S'b'
F0.30562437206287474
sS'g'
F0.25930546102738616
sS'h'
F0.75244605843484902
sS'l'
F0.30562437206287474
sS's'
F0.15155503051948879
sS'r'
F0.28314470912331874
sg4
S'circle_426_img.jpg'
p1091
sba(icapFunc
capDat
p1092
(dp1093
S'b'
F0.33147658402203856
sS'g'
F0.30140236590503966
sS'h'
F0.63876775833707222
sS'l'
F0.33147658402203856
sS's'
F0.10896867431712463
sS'r'
F0.29535602009398804
sg4
S'circle_427_img.jpg'
p1094
sba(icapFunc
capDat
p1095
(dp1096
S'b'
F0.23305234159779614
sS'g'
F0.25694409333981527
sS'h'
F0.20408855367752801
sS'l'
F0.25694409333981527
sS's'
F0.092984241947222601
sS'r'
F0.25157964673472694
sg4
S'circle_428_img.jpg'
p1097
sba(icapFunc
capDat
p1098
(dp1099
S'b'
F0.17143153459731
sS'g'
F0.41215264948954788
sS'h'
F0.097758444004139092
sS'l'
F0.58183276616431701
sS's'
F0.70535943562020786
sS'r'
F0.58183276616431701
sg4
S'circle_429_img.jpg'
p1100
sba(icapFunc
capDat
p1101
(dp1102
S'b'
F0.34671430886404148
sS'g'
F0.34793809755307081
sS'h'
F0.23569915254237106
sS'l'
F0.34793809755307081
sS's'
F0.0035172598161449485
sS'r'
F0.34743121050072923
sg4
S'circle_42_img.jpg'
p1103
sba(icapFunc
capDat
p1104
(dp1105
S'b'
F0.38016658564252148
sS'g'
F0.44642910387295415
sS'h'
F0.15984904279622661
sS'l'
F0.44925522605736506
sS's'
F0.15378483411570087
sS'r'
F0.44925522605736506
sg4
S'circle_430_img.jpg'
p1106
sba(icapFunc
capDat
p1107
(dp1108
S'b'
F0.52588980716253442
sS'g'
F0.48452438826770378
sS'h'
F0.62230444015148023
sS'l'
F0.52588980716253442
sS's'
F0.1071887481642491
sS'r'
F0.46952033706044399
sg4
S'circle_431_img.jpg'
p1109
sba(icapFunc
capDat
p1110
(dp1111
S'b'
F0.28625733268514014
sS'g'
F0.29562404796629399
sS'h'
F0.292463928583786
sS'l'
F0.29562404796629399
sS's'
F0.031684551191254261
sS'r'
F0.28855420515313562
sg4
S'circle_432_img.jpg'
p1112
sba(icapFunc
capDat
p1113
(dp1114
S'b'
F0.50323578026251825
sS'g'
F0.40938324420677363
sS'h'
F0.63108430113601388
sS'l'
F0.50323578026251825
sS's'
F0.23712239185848966
sS'r'
F0.38390730837789661
sg4
S'circle_433_img.jpg'
p1115
sba(icapFunc
capDat
p1116
(dp1117
S'b'
F0.5690756765516124
sS'g'
F0.52411699886566188
sS'h'
F0.53681159374139231
sS'l'
F0.5690756765516124
sS's'
F0.35769068895820499
sS'r'
F0.36552260573650952
sg4
S'circle_434_img.jpg'
p1118
sba(icapFunc
capDat
p1119
(dp1120
S'b'
F0.51777669745584187
sS'g'
F0.46578577216010369
sS'h'
F0.73538297863498281
sS'l'
F0.51777669745584187
sS's'
F0.10041186780170264
sS'r'
F0.48722152001296387
sg4
S'circle_435_img.jpg'
p1121
sba(icapFunc
capDat
p1122
(dp1123
S'b'
F0.35928990439150865
sS'g'
F0.3221682061254254
sS'h'
F0.61366717278474103
sS'l'
F0.35928990439150865
sS's'
F0.15149437708654875
sS'r'
F0.3048595041322314
sg4
S'circle_436_img.jpg'
p1124
sba(icapFunc
capDat
p1125
(dp1126
S'b'
F0.25207616269648353
sS'g'
F0.23187068546426834
sS'h'
F0.63184619353965488
sS'l'
F0.25207616269648353
sS's'
F0.10132543736604521
sS'r'
F0.22653443526170797
sg4
S'circle_437_img.jpg'
p1127
sba(icapFunc
capDat
p1128
(dp1129
S'b'
F0.52437757251660999
sS'g'
F0.47713725490196079
sS'h'
F0.76254688071716037
sS'l'
F0.52437757251660999
sS's'
F0.090088363977757324
sS'r'
F0.50431372549019604
sg4
S'circle_438_img.jpg'
p1130
sba(icapFunc
capDat
p1131
(dp1132
S'b'
F0.38692205477232217
sS'g'
F0.48107308377896613
sS'h'
F0.089828267442428597
sS'l'
F0.56160913952357794
sS's'
F0.31104743932665629
sS'r'
F0.56160913952357794
sg4
S'circle_439_img.jpg'
p1133
sba(icapFunc
capDat
p1134
(dp1135
S'b'
F0.3439533300923675
sS'g'
F0.27271884621617243
sS'h'
F0.63992274118551784
sS'l'
F0.3439533300923675
sS's'
F0.24668980879476249
sS'r'
F0.25910354885755954
sg4
S'circle_43_img.jpg'
p1136
sba(icapFunc
capDat
p1137
(dp1138
S'b'
F0.51485496678010045
sS'g'
F0.42390860476421977
sS'h'
F0.67565347540224152
sS'l'
F0.51485496678010045
sS's'
F0.17664462398927339
sS'r'
F0.42881251012801813
sg4
S'circle_440_img.jpg'
p1139
sba(icapFunc
capDat
p1140
(dp1141
S'b'
F0.44364835520985257
sS'g'
F0.40196143250688704
sS'h'
F0.53863998082195241
sS'l'
F0.44364835520985257
sS's'
F0.40529645833774702
sS'r'
F0.26383924809593257
sg4
S'circle_441_img.jpg'
p1142
sba(icapFunc
capDat
p1143
(dp1144
S'b'
F0.33964057689191379
sS'g'
F0.26715281153783826
sS'h'
F0.63594909256240351
sS'l'
F0.33964057689191379
sS's'
F0.26164809568294994
sS'r'
F0.25077426673148601
sg4
S'circle_442_img.jpg'
p1145
sba(icapFunc
capDat
p1146
(dp1147
S'b'
F0.42168562631664236
sS'g'
F0.43586290714632958
sS'h'
F0.015540757540876879
sS'l'
F0.57372970345162855
sS's'
F0.26500994496235825
sS'r'
F0.57372970345162855
sg4
S'circle_443_img.jpg'
p1148
sba(icapFunc
capDat
p1149
(dp1150
S'b'
F0.2976509479824988
sS'g'
F0.51291168368173723
sS'h'
F0.13997412050823277
sS'l'
F0.55396110841030632
sS's'
F0.46268620041456854
sS'r'
F0.55396110841030632
sg4
S'circle_444_img.jpg'
p1151
sba(icapFunc
capDat
p1152
(dp1153
S'b'
F0.45834807972775887
sS'g'
F0.319804569761789
sS'h'
F0.69811014731431309
sS'l'
F0.45834807972775887
sS's'
F0.30226702389210269
sS'r'
F0.34594231080862098
sg4
S'circle_445_img.jpg'
p1154
sba(icapFunc
capDat
p1155
(dp1156
S'b'
F0.41394198671204019
sS'g'
F0.36199773132393454
sS'h'
F0.74762282091917587
sS'l'
F0.41394198671204019
sS's'
F0.1254868002173474
sS'r'
F0.38722897423432179
sg4
S'circle_446_img.jpg'
p1157
sba(icapFunc
capDat
p1158
(dp1159
S'b'
F0.53724291038729544
sS'g'
F0.51109090909090915
sS'h'
F0.6010182952630615
sS'l'
F0.53724291038729544
sS's'
F0.080312463992982891
sS'r'
F0.49409560849133044
sg4
S'circle_447_img.jpg'
p1160
sba(icapFunc
capDat
p1161
(dp1162
S'b'
F0.33807097715119105
sS'g'
F0.3034982984929509
sS'h'
F0.61533795662581825
sS'l'
F0.33807097715119105
sS's'
F0.14777522773070734
sS'r'
F0.28811246151353104
sg4
S'circle_448_img.jpg'
p1163
sba(icapFunc
capDat
p1164
(dp1165
S'b'
F0.49224307243558579
sS'g'
F0.36080408361691785
sS'h'
F0.69981999975342424
sS'l'
F0.49224307243558579
sS's'
F0.267020494911826
sS'r'
F0.38694992707826931
sg4
S'circle_449_img.jpg'
p1166
sba(icapFunc
capDat
p1167
(dp1168
S'b'
F0.60700729217306759
sS'g'
F0.66043817857721598
sS'h'
F0.17938748400167417
sS'l'
F0.66043817857721598
sS's'
F0.080902176974769563
sS'r'
F0.65636007130124774
sg4
S'circle_44_img.jpg'
p1169
sba(icapFunc
capDat
p1170
(dp1171
S'b'
F0.58047771836007134
sS'g'
F0.60254934370442392
sS'h'
F0.25830127357982652
sS'l'
F0.60254934370442392
sS's'
F0.036630403094720911
sS'r'
F0.59041419543023821
sg4
S'circle_450_img.jpg'
p1172
sba(icapFunc
capDat
p1173
(dp1174
S'b'
F0.39279662939555987
sS'g'
F0.49238826770377569
sS'h'
F0.059420426054258624
sS'l'
F0.67213838923999347
sS's'
F0.41560155515041108
sS'r'
F0.67213838923999347
sg4
S'circle_451_img.jpg'
p1175
sba(icapFunc
capDat
p1176
(dp1177
S'b'
F0.28217209528439474
sS'g'
F0.28753459730999836
sS'h'
F0.085578037073816768
sS'l'
F0.29261578350348399
sS's'
F0.035690789109347226
sS'r'
F0.29261578350348399
sg4
S'circle_452_img.jpg'
p1178
sba(icapFunc
capDat
p1179
(dp1180
S'b'
F0.3530666018473505
sS'g'
F0.29124809593258794
sS'h'
F0.63092610134124072
sS'l'
F0.3530666018473505
sS's'
F0.22288681616358555
sS'r'
F0.27437271106789823
sg4
S'circle_453_img.jpg'
p1181
sba(icapFunc
capDat
p1182
(dp1183
S'b'
F0.49910095608491334
sS'g'
F0.4846332847188462
sS'h'
F0.98395005533347857
sS'l'
F0.63486922702965487
sS's'
F0.23664076933404604
sS'r'
F0.63486922702965487
sg4
S'circle_454_img.jpg'
p1184
sba(icapFunc
capDat
p1185
(dp1186
S'b'
F0.2028578836493275
sS'g'
F0.28962955760816722
sS'h'
F0.17687455957529985
sS'l'
F0.28962955760816722
sS's'
F0.29959536821939636
sS'r'
F0.28431502187651919
sg4
S'circle_455_img.jpg'
p1187
sba(icapFunc
capDat
p1188
(dp1189
S'b'
F0.39951839248095933
sS'g'
F0.41446702317290551
sS'h'
F0.24933512560344587
sS'l'
F0.41446702317290551
sS's'
F0.036067117179814763
sS'r'
F0.40705234159779613
sg4
S'circle_456_img.jpg'
p1190
sba(icapFunc
capDat
p1191
(dp1192
S'b'
F0.28998509155728408
sS'g'
F0.25330740560687087
sS'h'
F0.62132546860325988
sS'l'
F0.28998509155728408
sS's'
F0.17374928611264168
sS'r'
F0.23960038891589694
sg4
S'circle_457_img.jpg'
p1193
sba(icapFunc
capDat
p1194
(dp1195
S'b'
F0.37810986874088476
sS'g'
F0.46262291362826125
sS'h'
F0.17850874670041361
sS'l'
F0.46262291362826125
sS's'
F0.18268235834787597
sS'r'
F0.45661805217954948
sg4
S'circle_458_img.jpg'
p1196
sba(icapFunc
capDat
p1197
(dp1198
S'b'
F0.50487376438178577
sS'g'
F0.43314049586776859
sS'h'
F0.62682763868737779
sS'l'
F0.50487376438178577
sS's'
F0.18671218419964722
sS'r'
F0.4106076810889645
sg4
S'circle_459_img.jpg'
p1199
sba(icapFunc
capDat
p1200
(dp1201
S'b'
F0.3674509803921569
sS'g'
F0.51476486793064336
sS'h'
F0.16985379261387598
sS'l'
F0.51476486793064336
sS's'
F0.28617704259944704
sS'r'
F0.51194782045049425
sg4
S'circle_45_img.jpg'
p1202
sba(icapFunc
capDat
p1203
(dp1204
S'b'
F0.28854707502835847
sS'g'
F0.30972030465078593
sS'h'
F0.23166998316240614
sS'l'
F0.30972030465078593
sS's'
F0.068362420236866867
sS'r'
F0.30146232377248422
sg4
S'circle_460_img.jpg'
p1205
sba(icapFunc
capDat
p1206
(dp1207
S'b'
F0.26882450170150701
sS'g'
F0.45136768757089613
sS'h'
F0.12114374378404795
sS'l'
F0.51996305298979095
sS's'
F0.48299307007341313
sS'r'
F0.51996305298979095
sg4
S'circle_461_img.jpg'
p1208
sba(icapFunc
capDat
p1209
(dp1210
S'b'
F0.29176114081996435
sS'g'
F0.38462874736671532
sS'h'
F0.09459487118541117
sS'l'
F0.45538454059309674
sS's'
F0.35930820040581057
sS'r'
F0.45538454059309674
sg4
S'circle_462_img.jpg'
p1211
sba(icapFunc
capDat
p1212
(dp1213
S'b'
F0.65040479662939554
sS'g'
F0.67477167395883975
sS'h'
F0.083719169311285632
sS'l'
F0.69891395235780263
sS's'
F0.069406477814272144
sS'r'
F0.69891395235780263
sg4
S'circle_463_img.jpg'
p1214
sba(icapFunc
capDat
p1215
(dp1216
S'b'
F0.32528990439150868
sS'g'
F0.23594069032571707
sS'h'
F0.63248743064145785
sS'l'
F0.32528990439150868
sS's'
F0.34553673374634597
sS'r'
F0.21289029330740561
sg4
S'circle_464_img.jpg'
p1217
sba(icapFunc
capDat
p1218
(dp1219
S'b'
F0.52825473991249383
sS'g'
F0.56563571544320201
sS'h'
F0.14655266615333373
sS'l'
F0.57076616431696647
sS's'
F0.074481332395282901
sS'r'
F0.57076616431696647
sg4
S'circle_465_img.jpg'
p1220
sba(icapFunc
capDat
p1221
(dp1222
S'b'
F0.38745195268189919
sS'g'
F0.48162210338680927
sS'h'
F0.15056274095261776
sS'l'
F0.4916943769243235
sS's'
F0.2120065413285542
sS'r'
F0.4916943769243235
sg4
S'circle_466_img.jpg'
p1223
sba(icapFunc
capDat
p1224
(dp1225
S'b'
F0.37455679792578184
sS'g'
F0.33606546750931776
sS'h'
F0.62649969750419654
sS'l'
F0.37455679792578184
sS's'
F0.13539558447514258
sS'r'
F0.32384346135148273
sg4
S'circle_467_img.jpg'
p1226
sba(icapFunc
capDat
p1227
(dp1228
S'b'
F0.38426122184410955
sS'g'
F0.59335537190082643
sS'h'
F0.12533735556752279
sS'l'
F0.66230303030303028
sS's'
F0.41981056365045682
sS'r'
F0.66230303030303028
sg4
S'circle_468_img.jpg'
p1229
sba(icapFunc
capDat
p1230
(dp1231
S'b'
F0.16553492140657916
sS'g'
F0.34669129800680604
sS'h'
F0.1429408022062103
sS'l'
F0.37676033057851238
sS's'
F0.56063601188479251
sS'r'
F0.37676033057851238
sg4
S'circle_469_img.jpg'
p1232
sba(icapFunc
capDat
p1233
(dp1234
S'b'
F0.37512137416950248
sS'g'
F0.37134240803759516
sS'h'
F0.54704724091738088
sS'l'
F0.37512137416950248
sS's'
F0.03568747154272759
sS'r'
F0.36173424080375949
sg4
S'circle_46_img.jpg'
p1235
sba(icapFunc
capDat
p1236
(dp1237
S'b'
F0.24597666504618376
sS'g'
F0.23120499108734405
sS'h'
F0.57867934429851797
sS'l'
F0.24597666504618376
sS's'
F0.12721075259466563
sS'r'
F0.21468578836493274
sg4
S'circle_470_img.jpg'
p1238
sba(icapFunc
capDat
p1239
(dp1240
S'b'
F0.5613754658888348
sS'g'
F0.60453313887538485
sS'h'
F0.17217995989877025
sS'l'
F0.60453313887538485
sS's'
F0.071390086351322962
sS'r'
F0.60310549343704434
sg4
S'circle_471_img.jpg'
p1241
sba(icapFunc
capDat
p1242
(dp1243
S'b'
F0.64796013612056391
sS'g'
F0.66423010857235454
sS'h'
F0.22637331261661356
sS'l'
F0.66423010857235454
sS's'
F0.024494482020334885
sS'r'
F0.65840155566358782
sg4
S'circle_472_img.jpg'
p1244
sba(icapFunc
capDat
p1245
(dp1246
S'b'
F0.5057546588883487
sS'g'
F0.37000648193161562
sS'h'
F0.69925542336853275
sS'l'
F0.5057546588883487
sS's'
F0.26840717049469848
sS'r'
F0.3965496678010047
sg4
S'circle_473_img.jpg'
p1247
sba(icapFunc
capDat
p1248
(dp1249
S'b'
F0.30119721276940531
sS'g'
F0.50931129476584025
sS'h'
F0.16397643938012671
sS'l'
F0.51272565224436883
sS's'
F0.41255677095349913
sS'r'
F0.51272565224436883
sg4
S'circle_474_img.jpg'
p1250
sba(icapFunc
capDat
p1251
(dp1252
S'b'
F0.40118748987198188
sS'g'
F0.40379906011991579
sS'h'
F0.43150056105273937
sS'l'
F0.40379906011991579
sS's'
F0.015736137575225621
sS'r'
F0.39744482255712199
sg4
S'circle_475_img.jpg'
p1253
sba(icapFunc
capDat
p1254
(dp1255
S'b'
F0.43579387457462326
sS'g'
F0.53087117160913955
sS'h'
F0.092132635871306198
sS'l'
F0.60778739264300763
sS's'
F0.28298303016858917
sS'r'
F0.60778739264300763
sg4
S'circle_476_img.jpg'
p1256
sba(icapFunc
capDat
p1257
(dp1258
S'b'
F0.29677491492464758
sS'g'
F0.5165169340463458
sS'h'
F0.12276723956862147
sS'l'
F0.59509285367039377
sS's'
F0.50129645635263609
sS'r'
F0.59509285367039377
sg4
S'circle_477_img.jpg'
p1259
sba(icapFunc
capDat
p1260
(dp1261
S'b'
F0.42180748663101603
sS'g'
F0.49462971965645763
sS'h'
F0.087915282554513488
sS'l'
F0.55986128666342572
sS's'
F0.24658572278708762
sS'r'
F0.55986128666342572
sg4
S'circle_478_img.jpg'
p1262
sba(icapFunc
capDat
p1263
(dp1264
S'b'
F0.24267995462647871
sS'g'
F0.19374720466699077
sS'h'
F0.63454923306705446
sS'l'
F0.24267995462647871
sS's'
F0.24976595542936672
sS'r'
F0.18206676389564089
sg4
S'circle_479_img.jpg'
p1265
sba(icapFunc
capDat
p1266
(dp1267
S'b'
F0.57174526008750615
sS'g'
F0.54196013612056393
sS'h'
F0.94961032466912942
sS'l'
F0.64047609787716731
sS's'
F0.15381676550168014
sS'r'
F0.64047609787716731
sg4
S'circle_47_img.jpg'
p1268
sba(icapFunc
capDat
p1269
(dp1270
S'b'
F0.55792740236590499
sS'g'
F0.5773064333171285
sS'h'
F0.26981246724866415
sS'l'
F0.5773064333171285
sS's'
F0.033568014892669897
sS'r'
F0.56531323934532496
sg4
S'circle_480_img.jpg'
p1271
sba(icapFunc
capDat
p1272
(dp1273
S'b'
F0.35500891265597151
sS'g'
F0.26257365094798252
sS'h'
F0.63491795430720954
sS'l'
F0.35500891265597151
sS's'
F0.32164545637130498
sS'r'
F0.2408219089288608
sg4
S'circle_481_img.jpg'
p1274
sba(icapFunc
capDat
p1275
(dp1276
S'b'
F0.39867185221195917
sS'g'
F0.3628669583535894
sS'h'
F0.97645571519420049
sS'l'
F0.61632474477394261
sS's'
F0.41124064637923502
sS'r'
F0.61632474477394261
sg4
S'circle_482_img.jpg'
p1277
sba(icapFunc
capDat
p1278
(dp1279
S'b'
F0.35141824663749793
sS'g'
F0.2866553232863393
sS'h'
F0.6318696257580857
sS'l'
F0.35141824663749793
sS's'
F0.23291964131730947
sS'r'
F0.26956603467833412
sg4
S'circle_483_img.jpg'
p1280
sba(icapFunc
capDat
p1281
(dp1282
S'b'
F0.44706206449521957
sS'g'
F0.4284284556797926
sS'h'
F0.97713412572850333
sS'l'
F0.56424663749797443
sS's'
F0.24070711776048362
sS'r'
F0.56424663749797443
sg4
S'circle_484_img.jpg'
p1283
sba(icapFunc
capDat
p1284
(dp1285
S'b'
F0.25722670555825633
sS'g'
F0.18740917193323609
sS'h'
F0.96111822246480239
sS'l'
F0.48668189920596339
sS's'
F0.61492471316685504
sS'r'
F0.48668189920596339
sg4
S'circle_485_img.jpg'
p1286
sba(icapFunc
capDat
p1287
(dp1288
S'b'
F0.39888932101766328
sS'g'
F0.43366196726624534
sS'h'
F0.022678234593359731
sS'l'
F0.65444012315670064
sS's'
F0.3904876750318802
sS'r'
F0.65444012315670064
sg4
S'circle_486_img.jpg'
p1289
sba(icapFunc
capDat
p1290
(dp1291
S'b'
F0.38337028034354237
sS'g'
F0.37700340301409824
sS'h'
F0.9918371129017246
sS'l'
F0.50699983795170955
sS's'
F0.25640330668112193
sS'r'
F0.50699983795170955
sg4
S'circle_487_img.jpg'
p1292
sba(icapFunc
capDat
p1293
(dp1294
S'b'
F0.56122994652406422
sS'g'
F0.52808491330416463
sS'h'
F0.61277736975944552
sS'l'
F0.56122994652406422
sS's'
F0.087277924552817618
sS'r'
F0.51224696159455507
sg4
S'circle_488_img.jpg'
p1295
sba(icapFunc
capDat
p1296
(dp1297
S'b'
F0.18178253119429588
sS'g'
F0.21097391022524714
sS'h'
F0.11106918425128505
sS'l'
F0.22558612866634256
sS's'
F0.19417682164684522
sS'r'
F0.22558612866634256
sg4
S'circle_489_img.jpg'
p1298
sba(icapFunc
capDat
p1299
(dp1300
S'b'
F0.54689807162534443
sS'g'
F0.49056522443688216
sS'h'
F0.62100889596221631
sS'l'
F0.54689807162534443
sS's'
F0.14186875612609301
sS'r'
F0.46931032247609789
sg4
S'circle_48_img.jpg'
p1301
sba(icapFunc
capDat
p1302
(dp1303
S'b'
F0.32226964835520983
sS'g'
F0.5385026737967914
sS'h'
F0.16430522555961402
sS'l'
F0.5416104359099011
sS's'
F0.40497887967428203
sS'r'
F0.5416104359099011
sg4
S'circle_490_img.jpg'
p1304
sba(icapFunc
capDat
p1305
(dp1306
S'b'
F0.42790115054286176
sS'g'
F0.47819316156214553
sS'h'
F0.041225653974002574
sS'l'
F0.63122119591638315
sS's'
F0.32210585875265008
sS'r'
F0.63122119591638315
sg4
S'circle_491_img.jpg'
p1307
sba(icapFunc
capDat
p1308
(dp1309
S'b'
F0.51922800194457952
sS'g'
F0.49599449035812671
sS'h'
F0.65991853160581082
sS'l'
F0.51922800194457952
sS's'
F0.046634433529453713
sS'r'
F0.49501409820126396
sg4
S'circle_492_img.jpg'
p1310
sba(icapFunc
capDat
p1311
(dp1312
S'b'
F0.34071204018797602
sS'g'
F0.3456075190406741
sS'h'
F0.38477733534715547
sS'l'
F0.3456075190406741
sS's'
F0.02048909761321558
sS'r'
F0.33852633284718847
sg4
S'circle_493_img.jpg'
p1313
sba(icapFunc
capDat
p1314
(dp1315
S'b'
F0.40876908118619348
sS'g'
F0.50370150704910066
sS'h'
F0.058385945944653052
sS'l'
F0.67976016853022192
sS's'
F0.39865690855344704
sS'r'
F0.67976016853022192
sg4
S'circle_494_img.jpg'
p1316
sba(icapFunc
capDat
p1317
(dp1318
S'b'
F0.29674153297682709
sS'g'
F0.48762145519364769
sS'h'
F0.14313106495286562
sS'l'
F0.51900858855939069
sS's'
F0.42825313584792318
sS'r'
F0.51900858855939069
sg4
S'circle_495_img.jpg'
p1319
sba(icapFunc
capDat
p1320
(dp1321
S'b'
F0.46532652730513691
sS'g'
F0.45595333009236755
sS'h'
F0.98875219834026773
sS'l'
F0.59484265111003087
sS's'
F0.23348917694197471
sS'r'
F0.59484265111003087
sg4
S'circle_496_img.jpg'
p1322
sba(icapFunc
capDat
p1323
(dp1324
S'b'
F0.38344676713660669
sS'g'
F0.32808718198023012
sS'h'
F0.83795619053040016
sS'l'
F0.38502608977475289
sS's'
F0.14788324559468954
sS'r'
F0.38502608977475289
sg4
S'circle_497_img.jpg'
p1325
sba(icapFunc
capDat
p1326
(dp1327
S'b'
F0.40403305785123966
sS'g'
F0.33470166909739102
sS'h'
F0.64117524388006553
sS'l'
F0.40403305785123966
sS's'
F0.20258309509370762
sS'r'
F0.32218279047156051
sg4
S'circle_498_img.jpg'
p1328
sba(icapFunc
capDat
p1329
(dp1330
S'b'
F0.69375595527467182
sS'g'
F0.54615686274509812
sS'h'
F0.65137153310970797
sS'l'
F0.69375595527467182
sS's'
F0.23425102682258667
sS'r'
F0.53124291038729543
sg4
S'circle_499_img.jpg'
p1331
sba(icapFunc
capDat
p1332
(dp1333
S'b'
F0.72404051207259768
sS'g'
F0.70688834872792095
sS'h'
F0.60329059078400393
sS'l'
F0.72404051207259768
sS's'
F0.038224694688112501
sS'r'
F0.696364284556798
sg4
S'circle_49_img.jpg'
p1334
sba(icapFunc
capDat
p1335
(dp1336
S'b'
F0.48897553070815103
sS'g'
F0.45808361691784155
sS'h'
F0.60876838633847974
sS'l'
F0.48897553070815103
sS's'
F0.096806329014922449
sS'r'
F0.44163960460217144
sg4
S'circle_4_img.jpg'
p1337
sba(icapFunc
capDat
p1338
(dp1339
S'b'
F0.60366488413547237
sS'g'
F0.66174363960460214
sS'h'
F0.10021070855785419
sS'l'
F0.70025927726462489
sS's'
F0.13794089741512974
sS'r'
F0.70025927726462489
sg4
S'circle_500_img.jpg'
p1340
sba(icapFunc
capDat
p1341
(dp1342
S'b'
F0.51789628909415009
sS'g'
F0.52182628423270139
sS'h'
F0.41887443802183716
sS'l'
F0.52182628423270139
sS's'
F0.015472378959005625
sS'r'
F0.51375239021228325
sg4
S'circle_501_img.jpg'
p1343
sba(icapFunc
capDat
p1344
(dp1345
S'b'
F0.3363445146653703
sS'g'
F0.29133819478204503
sS'h'
F0.54385487880671224
sS'l'
F0.3363445146653703
sS's'
F0.50853399191166626
sS'r'
F0.16530189596499756
sg4
S'circle_502_img.jpg'
p1346
sba(icapFunc
capDat
p1347
(dp1348
S'b'
F0.70147885269810406
sS'g'
F0.64076908118619347
sS'h'
F0.62322824855635073
sS'l'
F0.70147885269810406
sS's'
F0.11705298388061798
sS'r'
F0.61936865986063849
sg4
S'circle_503_img.jpg'
p1349
sba(icapFunc
capDat
p1350
(dp1351
S'b'
F0.75000648193161568
sS'g'
F0.66089158969372874
sS'h'
F0.62439794820567529
sS'l'
F0.75000648193161568
sS's'
F0.1591918397507503
sS'r'
F0.63061157024793391
sg4
S'circle_504_img.jpg'
p1352
sba(icapFunc
capDat
p1353
(dp1354
S'b'
F0.27811051693404637
sS'g'
F0.50281056554853354
sS'h'
F0.19837701736976529
sS'l'
F0.50281056554853354
sS's'
F0.44688808074141018
sS'r'
F0.4600586614811214
sg4
S'circle_505_img.jpg'
p1355
sba(icapFunc
capDat
p1356
(dp1357
S'b'
F0.14862583049748826
sS'g'
F0.32889612704585969
sS'h'
F0.14455569364247478
sS'l'
F0.35646994004213256
sS's'
F0.58306209359498418
sS'r'
F0.35646994004213256
sg4
S'circle_506_img.jpg'
p1358
sba(icapFunc
capDat
p1359
(dp1360
S'b'
F0.20727434775563117
sS'g'
F0.14624501701507048
sS'h'
F0.63840269417286633
sS'l'
F0.20727434775563117
sS's'
F0.35456613686292598
sS'r'
F0.13378188300113433
sg4
S'circle_507_img.jpg'
p1361
sba(icapFunc
capDat
p1362
(dp1363
S'b'
F0.4322327013450008
sS'g'
F0.49065824015556636
sS'h'
F0.093628628737806432
sS'l'
F0.53623497002106624
sS's'
F0.1939490605619765
sS'r'
F0.53623497002106624
sg4
S'circle_508_img.jpg'
p1364
sba(icapFunc
capDat
p1365
(dp1366
S'b'
F0.61565224436882193
sS'g'
F0.58046702317290555
sS'h'
F0.60606406987309125
sS'l'
F0.61565224436882193
sS's'
F0.089805984959952012
sS'r'
F0.56036298817047481
sg4
S'circle_509_img.jpg'
p1367
sba(icapFunc
capDat
p1368
(dp1369
S'b'
F0.66273343056230749
sS'g'
F0.59896159455517739
sS'h'
F0.62467321814391708
sS'l'
F0.66273343056230749
sS's'
F0.12863691668492383
sS'r'
F0.5774814454707502
sg4
S'circle_50_img.jpg'
p1370
sba(icapFunc
capDat
p1371
(dp1372
S'b'
F0.35946653702803438
sS'g'
F0.38102641387133368
sS'h'
F0.42080595238095247
sS'l'
F0.38102641387133368
sS's'
F0.11908235140011088
sS'r'
F0.33565289256198344
sg4
S'circle_510_img.jpg'
p1373
sba(icapFunc
capDat
p1374
(dp1375
S'b'
F0.64845859666180528
sS'g'
F0.66816982660832935
sS'h'
F0.079009930316304863
sS'l'
F0.69003824339653219
sS's'
F0.060257017828551092
sS'r'
F0.69003824339653219
sg4
S'circle_511_img.jpg'
p1376
sba(icapFunc
capDat
p1377
(dp1378
S'b'
F0.3987476908118619
sS'g'
F0.36091265597147948
sS'h'
F0.61841510000466615
sS'l'
F0.3987476908118619
sS's'
F0.13354807142114006
sS'r'
F0.34549570572030469
sg4
S'circle_512_img.jpg'
p1379
sba(icapFunc
capDat
p1380
(dp1381
S'b'
F0.65686015232539297
sS'g'
F0.63720110192837465
sS'h'
F0.52978398289696838
sS'l'
F0.65686015232539297
sS's'
F0.16747716285545955
sS'r'
F0.54685107762113117
sg4
S'circle_513_img.jpg'
p1382
sba(icapFunc
capDat
p1383
(dp1384
S'b'
F0.68346005509641872
sS'g'
F0.69675190406741205
sS'h'
F0.055683182082321682
sS'l'
F0.72324420677361856
sS's'
F0.055007909229824792
sS'r'
F0.72324420677361856
sg4
S'circle_514_img.jpg'
p1385
sba(icapFunc
capDat
p1386
(dp1387
S'b'
F0.73740333819478199
sS'g'
F0.66901669097391026
sS'h'
F0.62482903131152501
sS'l'
F0.73740333819478199
sS's'
F0.12382244123523564
sS'r'
F0.646096256684492
sg4
S'circle_515_img.jpg'
p1388
sba(icapFunc
capDat
p1389
(dp1390
S'b'
F0.2796078431372549
sS'g'
F0.50195786744449844
sS'h'
F0.12188631256688935
sS'l'
F0.58364803111327179
sS's'
F0.52093071811804015
sS'r'
F0.58364803111327179
sg4
S'circle_516_img.jpg'
p1391
sba(icapFunc
capDat
p1392
(dp1393
S'b'
F0.57960168530222
sS'g'
F0.55828455679792577
sS'h'
F0.67814790038617057
sS'l'
F0.57960168530222
sS's'
F0.03677892774445421
sS'r'
F0.55975303840544477
sg4
S'circle_517_img.jpg'
p1394
sba(icapFunc
capDat
p1395
(dp1396
S'b'
F0.63136444660508828
sS'g'
F0.62899108734402853
sS'h'
F0.97262532241785404
sS'l'
F0.64344093339815267
sS's'
F0.02245714455530725
sS'r'
F0.64344093339815267
sg4
S'circle_518_img.jpg'
p1397
sba(icapFunc
capDat
p1398
(dp1399
S'b'
F0.47020385674931126
sS'g'
F0.47975627937125265
sS'h'
F0.33273958969487216
sS'l'
F0.47975627937125265
sS's'
F0.019910990293780781
sS'r'
F0.47023788689029328
sg4
S'circle_519_img.jpg'
p1400
sba(icapFunc
capDat
p1401
(dp1402
S'b'
F0.65138421649651601
sS'g'
F0.67526559714795009
sS'h'
F0.087383752783885202
sS'l'
F0.69693307405606864
sS's'
F0.065356142871027229
sS'r'
F0.69693307405606864
sg4
S'circle_51_img.jpg'
p1403
sba(icapFunc
capDat
p1404
(dp1405
S'b'
F0.39522962242748338
sS'g'
F0.37718100794036624
sS'h'
F0.97291765145281495
sS'l'
F0.48825344352617084
sS's'
F0.22748930306284879
sS'r'
F0.48825344352617084
sg4
S'circle_520_img.jpg'
p1406
sba(icapFunc
capDat
p1407
(dp1408
S'b'
F0.48036331226705559
sS'g'
F0.39815815913142116
sS'h'
F0.67808424405860179
sS'l'
F0.48036331226705559
sS's'
F0.17113120639390728
sS'r'
F0.40378966131907307
sg4
S'circle_521_img.jpg'
p1409
sba(icapFunc
capDat
p1410
(dp1411
S'b'
F0.43848322800194456
sS'g'
F0.4372659212445309
sS'h'
F0.99867084804565831
sS'l'
F0.58990795657105821
sS's'
F0.25875568150290001
sS'r'
F0.58990795657105821
sg4
S'circle_522_img.jpg'
p1412
sba(icapFunc
capDat
p1413
(dp1414
S'b'
F0.29148954788526976
sS'g'
F0.26160233349538159
sS'h'
F0.96690916841778918
sS'l'
F0.41213352779128182
sS's'
F0.36524860062376252
sS'r'
F0.41213352779128182
sg4
S'circle_523_img.jpg'
p1415
sba(icapFunc
capDat
p1416
(dp1417
S'b'
F0.32075579322638148
sS'g'
F0.47399027710257657
sS'h'
F0.12078144358866276
sS'l'
F0.53220450494247296
sS's'
F0.39730725642569936
sS'r'
F0.53220450494247296
sg4
S'circle_524_img.jpg'
p1418
sba(icapFunc
capDat
p1419
(dp1420
S'b'
F0.68004731810079411
sS'g'
F0.63406643979906008
sS'h'
F0.56776233462291648
sS'l'
F0.68004731810079411
sS's'
F0.16630240110261443
sS'r'
F0.56695381623723862
sg4
S'circle_525_img.jpg'
p1421
sba(icapFunc
capDat
p1422
(dp1423
S'b'
F0.27723221520012964
sS'g'
F0.48546686112461518
sS'h'
F0.11878775508543922
sS'l'
F0.56939847674607036
sS's'
F0.51311387978341139
sS'r'
F0.56939847674607036
sg4
S'circle_526_img.jpg'
p1424
sba(icapFunc
capDat
p1425
(dp1426
S'b'
F0.68629201101928372
sS'g'
F0.62302608977475293
sS'h'
F0.63244627365729933
sS'l'
F0.68629201101928372
sS's'
F0.11600318102867735
sS'r'
F0.60667995462647872
sg4
S'circle_527_img.jpg'
p1427
sba(icapFunc
capDat
p1428
(dp1429
S'b'
F0.40535115864527627
sS'g'
F0.40902446929184899
sS'h'
F0.45012936269074322
sS'l'
F0.40902446929184899
sS's'
F0.030013192873471168
sS'r'
F0.39674833900502354
sg4
S'circle_528_img.jpg'
p1430
sba(icapFunc
capDat
p1431
(dp1432
S'b'
F0.66105525846702318
sS'g'
F0.68308313077297034
sS'h'
F0.30371601904845963
sS'l'
F0.68308313077297034
sS's'
F0.032247718196496272
sS'r'
F0.66496969696969699
sg4
S'circle_529_img.jpg'
p1433
sba(icapFunc
capDat
p1434
(dp1435
S'b'
F0.74677847998703606
sS'g'
F0.65927272727272734
sS'h'
F0.63166161474303451
sS'l'
F0.74677847998703606
sS's'
F0.14833183967433161
sS'r'
F0.63600745422135796
sg4
S'circle_52_img.jpg'
p1436
sba(icapFunc
capDat
p1437
(dp1438
S'b'
F0.37988624210014582
sS'g'
F0.44030400259277264
sS'h'
F0.090222765568616567
sS'l'
F0.49149473343056227
sS's'
F0.2270797299320082
sS'r'
F0.49149473343056227
sg4
S'circle_530_img.jpg'
p1439
sba(icapFunc
capDat
p1440
(dp1441
S'b'
F0.41169016366877331
sS'g'
F0.50224080375952029
sS'h'
F0.05722348318670778
sS'l'
F0.67542408037595203
sS's'
F0.39047159313653745
sS'r'
F0.67542408037595203
sg4
S'circle_531_img.jpg'
p1442
sba(icapFunc
capDat
p1443
(dp1444
S'b'
F0.32605185545292498
sS'g'
F0.25272662453411116
sS'h'
F0.6376221290324936
sS'l'
F0.32605185545292498
sS's'
F0.27234991297502165
sS'r'
F0.23725166099497652
sg4
S'circle_532_img.jpg'
p1445
sba(icapFunc
capDat
p1446
(dp1447
S'b'
F0.8144832280019445
sS'g'
F0.77824404472532815
sS'h'
F0.60336679793665748
sS'l'
F0.8144832280019445
sS's'
F0.071740424529503063
sS'r'
F0.75605185545292497
sg4
S'circle_533_img.jpg'
p1448
sba(icapFunc
capDat
p1449
(dp1450
S'b'
F0.51684556797925785
sS'g'
F0.47453573164803114
sS'h'
F0.61825295027736404
sS'l'
F0.51684556797925785
sS's'
F0.11537648763706888
sS'r'
F0.45721374169502516
sg4
S'circle_534_img.jpg'
p1451
sba(icapFunc
capDat
p1452
(dp1453
S'b'
F0.40751806838437854
sS'g'
F0.47534078755469128
sS'h'
F0.052429184385915595
sS'l'
F0.62311910549343696
sS's'
F0.34600293139515886
sS'r'
F0.62311910549343696
sg4
S'circle_535_img.jpg'
p1454
sba(icapFunc
capDat
p1455
(dp1456
S'b'
F0.34482255712202237
sS'g'
F0.25390666018473507
sS'h'
F0.62779103425089999
sS'l'
F0.34482255712202237
sS's'
F0.34386860284787818
sS'r'
F0.22624890617403987
sg4
S'circle_536_img.jpg'
p1457
sba(icapFunc
capDat
p1458
(dp1459
S'b'
F0.25033641225085074
sS'g'
F0.17653962080700047
sS'h'
F0.95751041246809088
sS'l'
F0.46600972289742343
sS's'
F0.62116751618536548
sS'r'
F0.46600972289742343
sg4
S'circle_537_img.jpg'
p1460
sba(icapFunc
capDat
p1461
(dp1462
S'b'
F0.43464430400259274
sS'g'
F0.3091476259925458
sS'h'
F0.63991567914135528
sS'l'
F0.43464430400259274
sS's'
F0.34393834888654407
sS'r'
F0.28515345973099987
sg4
S'circle_538_img.jpg'
p1463
sba(icapFunc
capDat
p1464
(dp1465
S'b'
F0.2051848970993356
sS'g'
F0.44460735699238368
sS'h'
F0.16140631923378432
sS'l'
F0.45241030627126888
sS's'
F0.54646281427482535
sS'r'
F0.45241030627126888
sg4
S'circle_539_img.jpg'
p1466
sba(icapFunc
capDat
p1467
(dp1468
S'b'
F0.35743801652892565
sS'g'
F0.32873569923837304
sS'h'
F0.5974036972512583
sS'l'
F0.35743801652892565
sS's'
F0.13740088405304335
sS'r'
F0.30832571706368495
sg4
S'circle_53_img.jpg'
p1469
sba(icapFunc
capDat
p1470
(dp1471
S'b'
F0.4820845892075839
sS'g'
F0.50607745908280666
sS'h'
F0.23934215858435773
sS'l'
F0.50607745908280666
sS's'
F0.047409481383949438
sS'r'
F0.49561529735861287
sg4
S'circle_540_img.jpg'
p1472
sba(icapFunc
capDat
p1473
(dp1474
S'b'
F0.23135115864527628
sS'g'
F0.1518729541403338
sS'h'
F0.94792104675234434
sS'l'
F0.4062245989304813
sS's'
F0.6261355059733239
sS'r'
F0.4062245989304813
sg4
S'circle_541_img.jpg'
p1475
sba(icapFunc
capDat
p1476
(dp1477
S'b'
F0.52683616917841514
sS'g'
F0.56058791119753681
sS'h'
F0.21778166140136887
sS'l'
F0.56058791119753681
sS's'
F0.060207759291527836
sS'r'
F0.55023659050397022
sg4
S'circle_542_img.jpg'
p1478
sba(icapFunc
capDat
p1479
(dp1480
S'b'
F0.75952552260573658
sS'g'
F0.71425636039539786
sS'h'
F0.61612659709612849
sS'l'
F0.75952552260573658
sS's'
F0.085541553802064907
sS'r'
F0.6945545292497165
sg4
S'circle_543_img.jpg'
p1481
sba(icapFunc
capDat
p1482
(dp1483
S'b'
F0.81955080213903753
sS'g'
F0.74405509641873269
sS'h'
F0.62217498345244449
sS'l'
F0.81955080213903753
sS's'
F0.12566456442063281
sS'r'
F0.71656230756765515
sg4
S'circle_544_img.jpg'
p1484
sba(icapFunc
capDat
p1485
(dp1486
S'b'
F0.30039377734564898
sS'g'
F0.47529217306757415
sS'h'
F0.1662993375132433
sS'l'
F0.47567849619186514
sS's'
F0.36849409895442276
sS'r'
F0.47567849619186514
sg4
S'circle_545_img.jpg'
p1487
sba(icapFunc
capDat
p1488
(dp1489
S'b'
F0.29934888996921083
sS'g'
F0.37024825798087829
sS'h'
F0.091139063312402471
sS'l'
F0.42900307891751743
sS's'
F0.3022220476259907
sS'r'
F0.42900307891751743
sg4
S'circle_546_img.jpg'
p1490
sba(icapFunc
capDat
p1491
(dp1492
S'b'
F0.82184864689677517
sS'g'
F0.77350283584508184
sS'h'
F0.6201728182620857
sS'l'
F0.82184864689677517
sS's'
F0.081584848100057741
sS'r'
F0.75479824987846378
sg4
S'circle_547_img.jpg'
p1493
sba(icapFunc
capDat
p1494
(dp1495
S'b'
F0.31235780262518231
sS'g'
F0.24926462485820775
sS'h'
F0.96338750149046126
sS'l'
F0.53647609787716743
sS's'
F0.53536676499745961
sS'r'
F0.53647609787716743
sg4
S'circle_548_img.jpg'
p1496
sba(icapFunc
capDat
p1497
(dp1498
S'b'
F0.29771479500891268
sS'g'
F0.34486274509803921
sS'h'
F0.038961960699239628
sS'l'
F0.4993984767460703
sS's'
F0.40385321767752996
sS'r'
F0.4993984767460703
sg4
S'circle_549_img.jpg'
p1499
sba(icapFunc
capDat
p1500
(dp1501
S'b'
F0.50649586776859501
sS'g'
F0.45274282936315019
sS'h'
F0.54418339244698555
sS'l'
F0.50649586776859501
sS's'
F0.40032877034898412
sS'r'
F0.30373099983795171
sg4
S'circle_54_img.jpg'
p1502
sba(icapFunc
capDat
p1503
(dp1504
S'b'
F0.74586776859504134
sS'g'
F0.59828131583211797
sS'h'
F0.64848007616737258
sS'l'
F0.74586776859504134
sS's'
F0.22210852207919177
sS'r'
F0.58020418084589209
sg4
S'circle_550_img.jpg'
p1505
sba(icapFunc
capDat
p1506
(dp1507
S'b'
F0.6986945389726138
sS'g'
F0.64179581915410799
sS'h'
F0.6697567607080539
sS'l'
F0.6986945389726138
sS's'
F0.081435758610868464
sS'r'
F0.64285075352455034
sg4
S'circle_551_img.jpg'
p1508
sba(icapFunc
capDat
p1509
(dp1510
S'b'
F0.6297446118943445
sS'g'
F0.58725295738129968
sS'h'
F0.60718163030398153
sS'l'
F0.6297446118943445
sS's'
F0.10492224446071859
sS'r'
F0.56367039377734574
sg4
S'circle_552_img.jpg'
p1511
sba(icapFunc
capDat
p1512
(dp1513
S'b'
F0.76757316480311133
sS'g'
F0.59962048290390535
sS'h'
F0.64297672611775658
sS'l'
F0.76757316480311133
sS's'
F0.2550648194711333
sS'r'
F0.5717922540917193
sg4
S'circle_553_img.jpg'
p1514
sba(icapFunc
capDat
p1515
(dp1516
S'b'
F0.81346070328958031
sS'g'
F0.72844466050883172
sS'h'
F0.61597084249589484
sS'l'
F0.81346070328958031
sS's'
F0.15019803317459074
sS'r'
F0.69128050559066601
sg4
S'circle_554_img.jpg'
p1517
sba(icapFunc
capDat
p1518
(dp1519
S'b'
F0.47785512882839087
sS'g'
F0.50928309836331231
sS'h'
F0.2090315661383304
sS'l'
F0.50928309836331231
sS's'
F0.061710215076686795
sS'r'
F0.50129444174363957
sg4
S'circle_555_img.jpg'
p1520
sba(icapFunc
capDat
p1521
(dp1522
S'b'
F0.63843461351482733
sS'g'
F0.59513531032247602
sS'h'
F0.62159736708934521
sS'l'
F0.63843461351482733
sS's'
F0.092958490067973132
sS'r'
F0.57908669583535899
sg4
S'circle_556_img.jpg'
p1523
sba(icapFunc
capDat
p1524
(dp1525
S'b'
F0.33603208556149733
sS'g'
F0.39046540269000163
sS'h'
F0.042503299969227283
sS'l'
F0.54947950089126563
sS's'
F0.38845382763788777
sS'r'
F0.54947950089126563
sg4
S'circle_557_img.jpg'
p1526
sba(icapFunc
capDat
p1527
(dp1528
S'b'
F0.66318198023010866
sS'g'
F0.67735375141792253
sS'h'
F0.065287955613685833
sS'l'
F0.69935958515637664
sS's'
F0.051729619060241629
sS'r'
F0.69935958515637664
sg4
S'circle_558_img.jpg'
p1529
sba(icapFunc
capDat
p1530
(dp1531
S'b'
F0.84062453411116511
sS'g'
F0.75577766974558414
sS'h'
F0.66230034444535379
sS'l'
F0.84062453411116511
sS's'
F0.10364850542477735
sS'r'
F0.75349505752714308
sg4
S'circle_559_img.jpg'
p1532
sba(icapFunc
capDat
p1533
(dp1534
S'b'
F0.36448646896775239
sS'g'
F0.37918392480959329
sS'h'
F0.015278066950066763
sS'l'
F0.52481931615621458
sS's'
F0.30550104055380933
sS'r'
F0.52481931615621458
sg4
S'circle_55_img.jpg'
p1535
sba(icapFunc
capDat
p1536
(dp1537
S'b'
F0.41878236914600547
sS'g'
F0.42349084427159295
sS'h'
F0.44168553216768552
sS'l'
F0.42349084427159295
sS's'
F0.031776692245467683
sS'r'
F0.41003370604440126
sg4
S'circle_560_img.jpg'
p1538
sba(icapFunc
capDat
p1539
(dp1540
S'b'
F0.67660930157186838
sS'g'
F0.66663231242910381
sS'h'
F0.53822124219037126
sS'l'
F0.67660930157186838
sS's'
F0.064299187901582552
sS'r'
F0.63310387295414028
sg4
S'circle_561_img.jpg'
p1541
sba(icapFunc
capDat
p1542
(dp1543
S'b'
F0.54808426511100317
sS'g'
F0.59327272727272728
sS'h'
F0.24351222964137045
sS'l'
F0.59327272727272728
sS's'
F0.076168109681116355
sS'r'
F0.57243753038405454
sg4
S'circle_562_img.jpg'
p1544
sba(icapFunc
capDat
p1545
(dp1546
S'b'
F0.66260217144709133
sS'g'
F0.62730999837951718
sS'h'
F0.60918399268457024
sS'l'
F0.66260217144709133
sS's'
F0.081304638537627871
sS'r'
F0.60872954140333824
sg4
S'circle_563_img.jpg'
p1547
sba(icapFunc
capDat
p1548
(dp1549
S'b'
F0.69742570085885591
sS'g'
F0.64392383730351643
sS'h'
F0.61377655739761272
sS'l'
F0.69742570085885591
sS's'
F0.11237428011526519
sS'r'
F0.61905298979095769
sg4
S'circle_564_img.jpg'
p1550
sba(icapFunc
capDat
p1551
(dp1552
S'b'
F0.48130319235132069
sS'g'
F0.54094085237400746
sS'h'
F0.14007731154359704
sS'l'
F0.55226122184410953
sS's'
F0.1284863515418409
sS'r'
F0.55226122184410953
sg4
S'circle_565_img.jpg'
p1553
sba(icapFunc
capDat
p1554
(dp1555
S'b'
F0.66690779452276772
sS'g'
F0.57175595527467193
sS'h'
F0.63246945799560683
sS'l'
F0.66690779452276772
sS's'
F0.17950823814818553
sS'r'
F0.54719235132069355
sg4
S'circle_566_img.jpg'
p1556
sba(icapFunc
capDat
p1557
(dp1558
S'b'
F0.76108961270458597
sS'g'
F0.59950445632798577
sS'h'
F0.64408358836976098
sS'l'
F0.76108961270458597
sS's'
F0.24558390558104398
sS'r'
F0.5741782531194296
sg4
S'circle_567_img.jpg'
p1559
sba(icapFunc
capDat
p1560
(dp1561
S'b'
F0.73043655809431207
sS'g'
F0.59093793550478035
sS'h'
F0.64443715138446223
sS'l'
F0.73043655809431207
sS's'
F0.2203724261922953
sS'r'
F0.56946848160751906
sg4
S'circle_568_img.jpg'
p1562
sba(icapFunc
capDat
p1563
(dp1564
S'b'
F0.33194749635391346
sS'g'
F0.26072305947172258
sS'h'
F0.95422839999866704
sS'l'
F0.52007032895802952
sS's'
F0.49867730390601972
sS'r'
F0.52007032895802952
sg4
S'circle_569_img.jpg'
p1565
sba(icapFunc
capDat
p1566
(dp1567
S'b'
F0.50158256360395392
sS'g'
F0.42340269000162051
sS'h'
F0.64694068499709434
sS'l'
F0.50158256360395392
sS's'
F0.17679062154916558
sS'r'
F0.41290747042618703
sg4
S'circle_56_img.jpg'
p1568
sba(icapFunc
capDat
p1569
(dp1570
S'b'
F0.72967655161238054
sS'g'
F0.75155274671852212
sS'h'
F0.1590442125898914
sS'l'
F0.7526011991573488
sS's'
F0.030460551445620706
sS'r'
F0.7526011991573488
sg4
S'circle_570_img.jpg'
p1571
sba(icapFunc
capDat
p1572
(dp1573
S'b'
F0.38467250040512069
sS'g'
F0.42344385026737968
sS'h'
F0.075346123953377378
sS'l'
F0.47043526170798899
sS's'
F0.18230512949112945
sS'r'
F0.47043526170798899
sg4
S'circle_571_img.jpg'
p1574
sba(icapFunc
capDat
p1575
(dp1576
S'b'
F0.34631469777993845
sS'g'
F0.31285107762113112
sS'h'
F0.94571107388513997
sS'l'
F0.41558418408685788
sS's'
F0.24720167513462288
sS'r'
F0.41558418408685788
sg4
S'circle_572_img.jpg'
p1577
sba(icapFunc
capDat
p1578
(dp1579
S'b'
F0.652808296872468
sS'g'
F0.5672205477232215
sS'h'
F0.63954642300034248
sS'l'
F0.652808296872468
sS's'
F0.15658709984907457
sS'r'
F0.55058693890779453
sg4
S'circle_573_img.jpg'
p1580
sba(icapFunc
capDat
p1581
(dp1582
S'b'
F0.28364122508507533
sS'g'
F0.25941338518878626
sS'h'
F0.63410363768786704
sS'l'
F0.28364122508507533
sS's'
F0.10615819693204212
sS'r'
F0.25353038405444822
sg4
S'circle_574_img.jpg'
p1583
sba(icapFunc
capDat
p1584
(dp1585
S'b'
F0.6976567817209528
sS'g'
F0.63533495381623717
sS'h'
F0.63560204107537255
sS'l'
F0.6976567817209528
sS's'
F0.10979457591214427
sS'r'
F0.62105785123966939
sg4
S'circle_575_img.jpg'
p1586
sba(icapFunc
capDat
p1587
(dp1588
S'b'
F0.60921633446767143
sS'g'
F0.57547075028358452
sS'h'
F0.75408335094088308
sS'l'
F0.60921633446767143
sS's'
F0.055391791511259364
sS'r'
F0.59317031275320042
sg4
S'circle_576_img.jpg'
p1589
sba(icapFunc
capDat
p1590
(dp1591
S'b'
F0.67977799384216486
sS'g'
F0.67071657754010694
sS'h'
F0.61110448805067452
sS'l'
F0.67977799384216486
sS's'
F0.019996138176980923
sS'r'
F0.66618505914762605
sg4
S'circle_577_img.jpg'
p1592
sba(icapFunc
capDat
p1593
(dp1594
S'b'
F0.73888575595527461
sS'g'
F0.71842910387295411
sS'h'
F0.60708517410099294
sS'l'
F0.73888575595527461
sS's'
F0.043090017159158979
sS'r'
F0.70704715605250368
sg4
S'circle_578_img.jpg'
p1595
sba(icapFunc
capDat
p1596
(dp1597
S'b'
F0.82253378706854641
sS'g'
F0.77057494733430554
sS'h'
F0.62006593482308314
sS'l'
F0.82253378706854641
sS's'
F0.087686884734318682
sS'r'
F0.75040836169178415
sg4
S'circle_579_img.jpg'
p1598
sba(icapFunc
capDat
p1599
(dp1600
S'b'
F0.40838016528925619
sS'g'
F0.47457916058985578
sS'h'
F0.17171749315812934
sS'l'
F0.47457916058985578
sS's'
F0.13948989082942595
sS'r'
F0.47257300275482089
sg4
S'circle_57_img.jpg'
p1601
sba(icapFunc
capDat
p1602
(dp1603
S'b'
F0.79995592286501382
sS'g'
F0.73553362502025599
sS'h'
F0.62243398327592747
sS'l'
F0.79995592286501382
sS's'
F0.10962684704715556
sS'r'
F0.71225927726462479
sg4
S'circle_580_img.jpg'
p1604
sba(icapFunc
capDat
p1605
(dp1606
S'b'
F0.71384248906174042
sS'g'
F0.55753362502025605
sS'h'
F0.64713270440021331
sS'l'
F0.71384248906174042
sS's'
F0.2480394413593994
sS'r'
F0.53678139685626314
sg4
S'circle_581_img.jpg'
p1607
sba(icapFunc
capDat
p1608
(dp1609
S'b'
F0.76486728245017022
sS'g'
F0.73383309026089771
sS'h'
F0.61515750635581534
sS'l'
F0.76486728245017022
sS's'
F0.058723354850300773
sS'r'
F0.71995170960946364
sg4
S'circle_582_img.jpg'
p1610
sba(icapFunc
capDat
p1611
(dp1612
S'b'
F0.65107340787554691
sS'g'
F0.67259601361205645
sS'h'
F0.077259210654902502
sS'l'
F0.69750283584508188
sS's'
F0.066565217492315878
sS'r'
F0.69750283584508188
sg4
S'circle_583_img.jpg'
p1613
sba(icapFunc
capDat
p1614
(dp1615
S'b'
F0.29398736023334954
sS'g'
F0.4216386323124291
sS'h'
F0.14514068993675788
sS'l'
F0.44057073407875547
sS's'
F0.33271246251051029
sS'r'
F0.44057073407875547
sg4
S'circle_584_img.jpg'
p1616
sba(icapFunc
capDat
p1617
(dp1618
S'b'
F0.82813547237076657
sS'g'
F0.77510030789175177
sS'h'
F0.61570813605534525
sS'l'
F0.82813547237076657
sS's'
F0.092245966283815373
sS'r'
F0.75174331550802131
sg4
S'circle_585_img.jpg'
p1619
sba(icapFunc
capDat
p1620
(dp1621
S'b'
F0.65596759034192198
sS'g'
F0.63299043915086695
sS'h'
F0.61538837132087265
sS'l'
F0.65596759034192198
sS's'
F0.050594173483242175
sS'r'
F0.62277945227677844
sg4
S'circle_586_img.jpg'
p1622
sba(icapFunc
capDat
p1623
(dp1624
S'b'
F0.66801847350510446
sS'g'
F0.6245412412899044
sS'h'
F0.81863698822453623
sS'l'
F0.66801847350510446
sS's'
F0.065083877077641683
sS'r'
F0.66418473505104514
sg4
S'circle_587_img.jpg'
p1625
sba(icapFunc
capDat
p1626
(dp1627
S'b'
F0.7849084427159293
sS'g'
F0.71518943445146654
sS'h'
F0.64359637774902978
sS'l'
F0.7849084427159293
sS's'
F0.10309496724591057
sS'r'
F0.7039883325230919
sg4
S'circle_588_img.jpg'
p1628
sba(icapFunc
capDat
p1629
(dp1630
S'b'
F0.77708410306271269
sS'g'
F0.68324615135310318
sS'h'
F0.62162926257137208
sS'l'
F0.77708410306271269
sS's'
F0.1654707254014588
sS'r'
F0.64849943283098366
sg4
S'circle_589_img.jpg'
p1631
sba(icapFunc
capDat
p1632
(dp1633
S'b'
F0.74029881704748013
sS'g'
F0.70207551450332195
sS'h'
F0.63497725925366411
sS'l'
F0.74029881704748013
sS's'
F0.063754272845715207
sS'r'
F0.69310160427807488
sg4
S'circle_58_img.jpg'
p1634
sba(icapFunc
capDat
p1635
(dp1636
S'b'
F0.33880570409982175
sS'g'
F0.4656956733106466
sS'h'
F0.11699693163168585
sS'l'
F0.51956538648517259
sS's'
F0.34790555161531989
sS'r'
F0.51956538648517259
sg4
S'circle_590_img.jpg'
p1637
sba(icapFunc
capDat
p1638
(dp1639
S'b'
F0.79304974882514989
sS'g'
F0.73017598444336418
sS'h'
F0.62387916358560369
sS'l'
F0.79304974882514989
sS's'
F0.10666440535277513
sS'r'
F0.7084595689515476
sg4
S'circle_591_img.jpg'
p1640
sba(icapFunc
capDat
p1641
(dp1642
S'b'
F0.7594739912493923
sS'g'
F0.66829978933722256
sS'h'
F0.60984444709959706
sS'l'
F0.7594739912493923
sS's'
F0.18215022294938404
sS'r'
F0.62113563441905695
sg4
S'circle_592_img.jpg'
p1643
sba(icapFunc
capDat
p1644
(dp1645
S'b'
F0.72826154594069026
sS'g'
F0.67042521471398475
sS'h'
F0.62457365282670085
sS'l'
F0.72826154594069026
sS's'
F0.1062517050124808
sS'r'
F0.65088251498946681
sg4
S'circle_593_img.jpg'
p1646
sba(icapFunc
capDat
p1647
(dp1648
S'b'
F0.570729865499919
sS'g'
F0.51420871819802305
sS'h'
F0.62318085115399935
sS'l'
F0.570729865499919
sS's'
F0.13399417485762247
sS'r'
F0.4942553881056555
sg4
S'circle_594_img.jpg'
p1649
sba(icapFunc
capDat
p1650
(dp1651
S'b'
F0.4207587100956085
sS'g'
F0.37437011829525196
sS'h'
F0.61750180194823845
sS'l'
F0.4207587100956085
sS's'
F0.15638039177323967
sS'r'
F0.35496029816885427
sg4
S'circle_595_img.jpg'
p1652
sba(icapFunc
capDat
p1653
(dp1654
S'b'
F0.51915119105493435
sS'g'
F0.51618765192027216
sS'h'
F0.9749230743915881
sS'l'
F0.53588397342408045
sS's'
F0.036754824701990645
sS'r'
F0.53588397342408045
sg4
S'circle_596_img.jpg'
p1655
sba(icapFunc
capDat
p1656
(dp1657
S'b'
F0.67658596661805226
sS'g'
F0.67392156862745101
sS'h'
F0.52846330688160459
sS'l'
F0.67658596661805226
sS's'
F0.023058948862956077
sS'r'
F0.66098460541241288
sg4
S'circle_597_img.jpg'
p1658
sba(icapFunc
capDat
p1659
(dp1660
S'b'
F0.41478398962890944
sS'g'
F0.38585999027710255
sS'h'
F0.61300669087741166
sS'l'
F0.41478398962890944
sS's'
F0.10284447139276282
sS'r'
F0.37212574947334304
sg4
S'circle_598_img.jpg'
p1661
sba(icapFunc
capDat
p1662
(dp1663
S'b'
F0.55637238697131741
sS'g'
F0.55181040350024302
sS'h'
F0.63027543314082646
sS'l'
F0.55637238697131741
sS's'
F0.010489972837214962
sS'r'
F0.55053605574461184
sg4
S'circle_599_img.jpg'
p1664
sba(icapFunc
capDat
p1665
(dp1666
S'b'
F0.58102835845081835
sS'g'
F0.57045081834386646
sS'h'
F0.59207474990266951
sS'l'
F0.58102835845081835
sS's'
F0.032953045104121413
sS'r'
F0.56188170474801491
sg4
S'circle_59_img.jpg'
p1667
sba(icapFunc
capDat
p1668
(dp1669
S'b'
F0.37469097391022521
sS'g'
F0.32964641063036787
sS'h'
F0.61887472501907326
sS'l'
F0.37469097391022521
sS's'
F0.16854985126834907
sS'r'
F0.31153686598606389
sg4
S'circle_5_img.jpg'
p1670
sba(icapFunc
capDat
p1671
(dp1672
S'b'
F0.69548501053313883
sS'g'
F0.6390682223302544
sS'h'
F0.65011452145897586
sS'l'
F0.69548501053313883
sS's'
F0.090063045250076953
sS'r'
F0.6328475125587425
sg4
S'circle_600_img.jpg'
p1673
sba(icapFunc
capDat
p1674
(dp1675
S'b'
F0.69754756117322958
sS'g'
F0.65795365418894836
sS'h'
F0.83527497094285408
sS'l'
F0.69801426024955437
sS's'
F0.057392245892345428
sS'r'
F0.69801426024955437
sg4
S'circle_601_img.jpg'
p1676
sba(icapFunc
capDat
p1677
(dp1678
S'b'
F0.67798217468805699
sS'g'
F0.62214713984767456
sS'h'
F0.58456988297203905
sS'l'
F0.67798217468805699
sS's'
F0.16230112710178324
sS'r'
F0.56794490358126726
sg4
S'circle_602_img.jpg'
p1679
sba(icapFunc
capDat
p1680
(dp1681
S'b'
F0.63651758223950738
sS'g'
F0.62823205315183928
sS'h'
F0.595082418399833
sS'l'
F0.63651758223950738
sS's'
F0.022816991051311818
sS'r'
F0.62199416626154591
sg4
S'circle_603_img.jpg'
p1682
sba(icapFunc
capDat
p1683
(dp1684
S'b'
F0.66988429752066114
sS'g'
F0.65138616107600067
sS'h'
F0.94935814851488676
sS'l'
F0.71226511100307899
sS's'
F0.085472317802205461
sS'r'
F0.71226511100307899
sg4
S'circle_604_img.jpg'
p1685
sba(icapFunc
capDat
p1686
(dp1687
S'b'
F0.6255942310808621
sS'g'
F0.64643526170798893
sS'h'
F0.12369724040026271
sS'l'
F0.65367493112947661
sS's'
F0.042958202481613042
sS'r'
F0.65367493112947661
sg4
S'circle_605_img.jpg'
p1688
sba(icapFunc
capDat
p1689
(dp1690
S'b'
F0.77917841516771991
sS'g'
F0.73669810403500247
sS'h'
F0.61887348928829888
sS'l'
F0.77917841516771991
sS's'
F0.076438915128184209
sS'r'
F0.71961886242100148
sg4
S'circle_606_img.jpg'
p1691
sba(icapFunc
capDat
p1692
(dp1693
S'b'
F0.66213352779128176
sS'g'
F0.60658045697617891
sS'h'
F0.61985252061648788
sS'l'
F0.66213352779128176
sS's'
F0.11667130850366592
sS'r'
F0.58488154269972448
sg4
S'circle_607_img.jpg'
p1694
sba(icapFunc
capDat
p1695
(dp1696
S'b'
F0.84943509965969854
sS'g'
F0.78443817857721598
sS'h'
F0.62486940105674638
sS'l'
F0.84943509965969854
sS's'
F0.10213046351450544
sS'r'
F0.76268189920596341
sg4
S'circle_608_img.jpg'
p1697
sba(icapFunc
capDat
p1698
(dp1699
S'b'
F0.71960557446118945
sS'g'
F0.67814649165451302
sS'h'
F0.6158254243334621
sS'l'
F0.71960557446118945
sS's'
F0.082902956885490181
sS'r'
F0.65994814454707507
sg4
S'circle_609_img.jpg'
p1700
sba(icapFunc
capDat
p1701
(dp1702
S'b'
F0.50311748501053311
sS'g'
F0.47910257656781718
sS'h'
F0.78443862632369754
sS'l'
F0.50311748501053311
sS's'
F0.047732207999515566
sS'r'
F0.49607227353751415
sg4
S'circle_60_img.jpg'
p1703
sba(icapFunc
capDat
p1704
(dp1705
S'b'
F0.7142388591800356
sS'g'
F0.7142845567979258
sS'h'
F0.49924536784303547
sS'l'
F0.7142845567979258
sS's'
F0.014129791168029721
sS'r'
F0.70419186517582244
sg4
S'circle_610_img.jpg'
p1706
sba(icapFunc
capDat
p1707
(dp1708
S'b'
F0.450404148436234
sS'g'
F0.46315281153783827
sS'h'
F0.2626813436377195
sS'l'
F0.46315281153783827
sS's'
F0.027525824704105775
sS'r'
F0.45580845892075839
sg4
S'circle_611_img.jpg'
p1709
sba(icapFunc
capDat
p1710
(dp1711
S'b'
F0.59299011505428612
sS'g'
F0.55862064495219577
sS'h'
F0.61262593114171182
sS'l'
F0.59299011505428612
sS's'
F0.085770064672829049
sS'r'
F0.54212931453573165
sg4
S'circle_612_img.jpg'
p1712
sba(icapFunc
capDat
p1713
(dp1714
S'b'
F0.20525652244368822
sS'g'
F0.26883390050234968
sS'h'
F0.17764875005097669
sS'l'
F0.26883390050234968
sS's'
F0.23649315781923036
sS'r'
F0.26464462809917355
sg4
S'circle_613_img.jpg'
p1715
sba(icapFunc
capDat
p1716
(dp1717
S'b'
F0.4948040836169178
sS'g'
F0.43595981202398315
sS'h'
F0.90073360166818117
sS'l'
F0.5347583859990277
sS's'
F0.18475366924909559
sS'r'
F0.5347583859990277
sg4
S'circle_614_img.jpg'
p1718
sba(icapFunc
capDat
p1719
(dp1720
S'b'
F0.73832928212607352
sS'g'
F0.70891622103386809
sS'h'
F0.59095628678180268
sS'l'
F0.73832928212607352
sS's'
F0.072997192854618767
sS'r'
F0.6844333171285043
sg4
S'circle_615_img.jpg'
p1721
sba(icapFunc
capDat
p1722
(dp1723
S'b'
F0.54426057365094793
sS'g'
F0.53941857073407873
sS'h'
F0.90315052508751492
sS'l'
F0.5477510938259601
sS's'
F0.015212243637306016
sS'r'
F0.5477510938259601
sg4
S'circle_616_img.jpg'
p1724
sba(icapFunc
capDat
p1725
(dp1726
S'b'
F0.62132717549829852
sS'g'
F0.55561789013125906
sS'h'
F0.63999958568972304
sS'l'
F0.62132717549829852
sS's'
F0.12590077225817059
sS'r'
F0.54310160427807486
sg4
S'circle_617_img.jpg'
p1727
sba(icapFunc
capDat
p1728
(dp1729
S'b'
F0.53519105493437036
sS'g'
F0.44643785448063522
sS'h'
F0.69792001402237736
sS'l'
F0.53519105493437036
sS's'
F0.16583461108971412
sS'r'
F0.46308086209690486
sg4
S'circle_618_img.jpg'
p1730
sba(icapFunc
capDat
p1731
(dp1732
S'b'
F0.53404504942472852
sS'g'
F0.47890163668773295
sS'h'
F0.68692781647026557
sS'l'
F0.53404504942472852
sS's'
F0.10325610694527713
sS'r'
F0.48560525036460866
sg4
S'circle_619_img.jpg'
p1733
sba(icapFunc
capDat
p1734
(dp1735
S'b'
F0.26678010046994005
sS'g'
F0.30354853346297195
sS'h'
F0.15491894165328435
sS'l'
F0.30633673634743153
sS's'
F0.12912795360145232
sS'r'
F0.30633673634743153
sg4
S'circle_61_img.jpg'
p1736
sba(icapFunc
capDat
p1737
(dp1738
S'b'
F0.53265046183762754
sS'g'
F0.5143467833414358
sS'h'
F0.85860285317990925
sS'l'
F0.53592156862745099
sS's'
F0.040257355831507941
sS'r'
F0.53592156862745099
sg4
S'circle_620_img.jpg'
p1739
sba(icapFunc
capDat
p1740
(dp1741
S'b'
F0.44936768757089612
sS'g'
F0.37638632312429104
sS'h'
F0.63113348846851769
sS'l'
F0.44936768757089612
sS's'
F0.20641691020133798
sS'r'
F0.35661059795819156
sg4
S'circle_621_img.jpg'
p1742
sba(icapFunc
capDat
p1743
(dp1744
S'b'
F0.63876130286825472
sS'g'
F0.58707891751742025
sS'h'
F0.6323964804086154
sS'l'
F0.63876130286825472
sS's'
F0.10185357131622221
sS'r'
F0.57370118295251993
sg4
S'circle_622_img.jpg'
p1745
sba(icapFunc
capDat
p1746
(dp1747
S'b'
F0.79585512882839082
sS'g'
F0.67685075352455026
sS'h'
F0.63320360793327424
sS'l'
F0.79585512882839082
sS's'
F0.18709478007713753
sS'r'
F0.64695478852698107
sg4
S'circle_623_img.jpg'
p1748
sba(icapFunc
capDat
p1749
(dp1750
S'b'
F0.84306109220547731
sS'g'
F0.79426802787230599
sS'h'
F0.61162244801119847
sS'l'
F0.84306109220547731
sS's'
F0.086416416628063791
sS'r'
F0.77020677361853829
sg4
S'circle_624_img.jpg'
p1751
sba(icapFunc
capDat
p1752
(dp1753
S'b'
F0.61848484848484853
sS'g'
F0.66004440123156705
sS'h'
F0.14424556572446753
sS'l'
F0.66650429427969538
sS's'
F0.072046716288216017
sS'r'
F0.66650429427969538
sg4
S'circle_625_img.jpg'
p1754
sba(icapFunc
capDat
p1755
(dp1756
S'b'
F0.6220100469940042
sS'g'
F0.64516642359423104
sS'h'
F0.079269402137252643
sS'l'
F0.67069713174526013
sS's'
F0.072591759300601799
sS'r'
F0.67069713174526013
sg4
S'circle_626_img.jpg'
p1757
sba(icapFunc
capDat
p1758
(dp1759
S'b'
F0.73009204342894185
sS'g'
F0.69140398638794354
sS'h'
F0.61384765632450999
sS'l'
F0.73009204342894185
sS's'
F0.077575388456247285
sS'r'
F0.67345486955112632
sg4
S'circle_627_img.jpg'
p1760
sba(icapFunc
capDat
p1761
(dp1762
S'b'
F0.80626640738940214
sS'g'
F0.74645146653702799
sS'h'
F0.61922785719453854
sS'l'
F0.80626640738940214
sS's'
F0.10370557957338708
sS'r'
F0.72265208232053157
sg4
S'circle_628_img.jpg'
p1763
sba(icapFunc
capDat
p1764
(dp1765
S'b'
F0.72069162210338678
sS'g'
F0.6770646572678658
sS'h'
F0.62254899283156073
sS'l'
F0.72069162210338678
sS's'
F0.082327424546722691
sS'r'
F0.66135893696321502
sg4
S'circle_629_img.jpg'
p1766
sba(icapFunc
capDat
p1767
(dp1768
S'b'
F0.59204180845892085
sS'g'
F0.63930254415815913
sS'h'
F0.074354801043046426
sS'l'
F0.69797698914276463
sS's'
F0.15177460336328613
sS'r'
F0.69797698914276463
sg4
S'circle_62_img.jpg'
p1769
sba(icapFunc
capDat
p1770
(dp1771
S'b'
F0.50443266893534278
sS'g'
F0.45686112461513528
sS'h'
F0.64147389929832688
sS'l'
F0.50443266893534278
sS's'
F0.11110061699006771
sS'r'
F0.44838988818667963
sg4
S'circle_630_img.jpg'
p1772
sba(icapFunc
capDat
p1773
(dp1774
S'b'
F0.70820969048776539
sS'g'
F0.62773002754820939
sS'h'
F0.71523773088487974
sS'l'
F0.70820969048776539
sS's'
F0.11363818374770786
sS'r'
F0.65118392480959331
sg4
S'circle_631_img.jpg'
p1775
sba(icapFunc
capDat
p1776
(dp1777
S'b'
F0.68094052827742668
sS'g'
F0.65570572030465069
sS'h'
F0.62237834779328638
sS'l'
F0.68094052827742668
sS's'
F0.050470195265016032
sS'r'
F0.64657332685140179
sg4
S'circle_632_img.jpg'
p1778
sba(icapFunc
capDat
p1779
(dp1780
S'b'
F0.62118975854804726
sS'g'
F0.61042521471398481
sS'h'
F0.90603020477912299
sS'l'
F0.62951742019121693
sS's'
F0.030328319542663056
sS'r'
F0.62951742019121693
sg4
S'circle_633_img.jpg'
p1781
sba(icapFunc
capDat
p1782
(dp1783
S'b'
F0.828870523415978
sS'g'
F0.78027321341759837
sS'h'
F0.62191467184418048
sS'l'
F0.828870523415978
sS's'
F0.080152728467084822
sS'r'
F0.76243428941824665
sg4
S'circle_634_img.jpg'
p1784
sba(icapFunc
capDat
p1785
(dp1786
S'b'
F0.68145811051693406
sS'g'
F0.62791119753686597
sS'h'
F0.70713820242627479
sS'l'
F0.68145811051693406
sS's'
F0.07857696922771816
sS'r'
F0.64091395235780269
sg4
S'circle_635_img.jpg'
p1787
sba(icapFunc
capDat
p1788
(dp1789
S'b'
F0.82128180197698919
sS'g'
F0.75923253929671042
sS'h'
F0.62022876075573696
sS'l'
F0.82128180197698919
sS's'
F0.10473330399970017
sS'r'
F0.73526624534111162
sg4
S'circle_636_img.jpg'
p1790
sba(icapFunc
capDat
p1791
(dp1792
S'b'
F0.61839734240803756
sS'g'
F0.55518975854804731
sS'h'
F0.61271608149111401
sS'l'
F0.61839734240803756
sS's'
F0.15113478838509165
sS'r'
F0.52493599092529575
sg4
S'circle_637_img.jpg'
p1793
sba(icapFunc
capDat
p1794
(dp1795
S'b'
F0.69374234321827899
sS'g'
F0.6297799384216497
sS'h'
F0.6318560030572824
sS'l'
F0.69374234321827899
sS's'
F0.11654010993477354
sS'r'
F0.61289353427321336
sg4
S'circle_638_img.jpg'
p1796
sba(icapFunc
capDat
p1797
(dp1798
S'b'
F0.54189888186679624
sS'g'
F0.50478107275968231
sS'h'
F0.61178622532742244
sS'l'
F0.54189888186679624
sS's'
F0.10212322872390359
sS'r'
F0.4865584184086858
sg4
S'circle_639_img.jpg'
p1799
sba(icapFunc
capDat
p1800
(dp1801
S'b'
F0.42234289418246634
sS'g'
F0.36424404472532812
sS'h'
F0.6222221767688958
sS'l'
F0.42234289418246634
sS's'
F0.18758628204665811
sS'r'
F0.34311716091395233
sg4
S'circle_63_img.jpg'
p1802
sba(icapFunc
capDat
p1803
(dp1804
S'b'
F0.6947995462647869
sS'g'
F0.71536963215038085
sS'h'
F0.22311417122269636
sS'l'
F0.71536963215038085
sS's'
F0.028754485738737401
sS'r'
F0.70840285204991094
sg4
S'circle_640_img.jpg'
p1805
sba(icapFunc
capDat
p1806
(dp1807
S'b'
F0.78558710095608497
sS'g'
F0.73649392318911033
sS'h'
F0.6129673381599714
sS'l'
F0.78558710095608497
sS's'
F0.092198245080610822
sS'r'
F0.71315734888996929
sg4
S'circle_641_img.jpg'
p1808
sba(icapFunc
capDat
p1809
(dp1810
S'b'
F0.82278301733916703
sS'g'
F0.77391605898557769
sS'h'
F0.6139266808414825
sS'l'
F0.82278301733916703
sS's'
F0.086886698176269039
sS'r'
F0.75129411764705889
sg4
S'circle_642_img.jpg'
p1811
sba(icapFunc
capDat
p1812
(dp1813
S'b'
F0.71254253767622755
sS'g'
F0.68540690325717057
sS'h'
F0.64244082190941876
sS'l'
F0.71254253767622755
sS's'
F0.044559823520047365
sS'r'
F0.68079176794684815
sg4
S'circle_643_img.jpg'
p1814
sba(icapFunc
capDat
p1815
(dp1816
S'b'
F0.72084232701345008
sS'g'
F0.69404991087344026
sS'h'
F0.81249899195174224
sS'l'
F0.72084232701345008
sS's'
F0.037168206050017243
sS'r'
F0.71749311294765838
sg4
S'circle_644_img.jpg'
p1817
sba(icapFunc
capDat
p1818
(dp1819
S'b'
F0.58765451304488736
sS'g'
F0.59866472208718202
sS'h'
F0.084162021553326485
sS'l'
F0.60945811051693399
sS's'
F0.035775383239306013
sS'r'
F0.60945811051693399
sg4
S'circle_645_img.jpg'
p1820
sba(icapFunc
capDat
p1821
(dp1822
S'b'
F0.4586151353103225
sS'g'
F0.33716836817371576
sS'h'
F0.89705526022994186
sS'l'
F0.53378966131907313
sS's'
F0.36834975907828021
sS'r'
F0.53378966131907313
sg4
S'circle_646_img.jpg'
p1823
sba(icapFunc
capDat
p1824
(dp1825
S'b'
F0.18899335602009398
sS'g'
F0.24022200615783504
sS'h'
F0.038373506728582453
sS'l'
F0.41149343704423919
sS's'
F0.5407135594248238
sS'r'
F0.41149343704423919
sg4
S'circle_647_img.jpg'
p1826
sba(icapFunc
capDat
p1827
(dp1828
S'b'
F0.65859342083941019
sS'g'
F0.58633025441581599
sS'h'
F0.63507023448650202
sS'l'
F0.65859342083941019
sS's'
F0.13539065690988089
sS'r'
F0.56942602495543682
sg4
S'circle_648_img.jpg'
p1829
sba(icapFunc
capDat
p1830
(dp1831
S'b'
F0.64130643331712855
sS'g'
F0.5872617079889807
sS'h'
F0.62103798482697359
sS'l'
F0.64130643331712855
sS's'
F0.11604188702873688
sS'r'
F0.56688802463134014
sg4
S'circle_649_img.jpg'
p1832
sba(icapFunc
capDat
p1833
(dp1834
S'b'
F0.42705201750121535
sS'g'
F0.37353297682709447
sS'h'
F0.61921686346874127
sS'l'
F0.42705201750121535
sS's'
F0.17520181471978169
sS'r'
F0.35223172905525846
sg4
S'circle_64_img.jpg'
p1835
sba(icapFunc
capDat
p1836
(dp1837
S'b'
F0.71235034840382427
sS'g'
F0.66545746232377256
sS'h'
F0.6839590475137306
sS'l'
F0.71235034840382427
sS's'
F0.065828403376407982
sS'r'
F0.670322800194458
sg4
S'circle_650_img.jpg'
p1838
sba(icapFunc
capDat
p1839
(dp1840
S'b'
F0.65680732458272562
sS'g'
F0.60561983471074388
sS'h'
F0.62241909855443145
sS'l'
F0.65680732458272562
sS's'
F0.10610245147117382
sS'r'
F0.58711845730027545
sg4
S'circle_651_img.jpg'
p1841
sba(icapFunc
capDat
p1842
(dp1843
S'b'
F0.77383730351644786
sS'g'
F0.69352908766812515
sS'h'
F0.65014415089126321
sS'l'
F0.77383730351644786
sS's'
F0.115199514171736
sS'r'
F0.68469162210338685
sg4
S'circle_652_img.jpg'
p1844
sba(icapFunc
capDat
p1845
(dp1846
S'b'
F0.71673764381785765
sS'g'
F0.71420547723221517
sS'h'
F0.5502689417335801
sS'l'
F0.71673764381785765
sS's'
F0.011713348532711233
sS'r'
F0.70834224598930484
sg4
S'circle_653_img.jpg'
p1847
sba(icapFunc
capDat
p1848
(dp1849
S'b'
F0.71439572192513368
sS'g'
F0.70346005509641873
sS'h'
F0.73275640645683815
sS'l'
F0.71439572192513368
sS's'
F0.015307576029774941
sS'r'
F0.70779646734726942
sg4
S'circle_654_img.jpg'
p1850
sba(icapFunc
capDat
p1851
(dp1852
S'b'
F0.74036622913628258
sS'g'
F0.71605055906660176
sS'h'
F0.60404670771620383
sS'l'
F0.74036622913628258
sS's'
F0.052609000175100618
sS'r'
F0.70141630205801331
sg4
S'circle_655_img.jpg'
p1853
sba(icapFunc
capDat
p1854
(dp1855
S'b'
F0.55993939393939396
sS'g'
F0.5021153783827581
sS'h'
F0.71488169969808391
sS'l'
F0.55993939393939396
sS's'
F0.10326834686486541
sS'r'
F0.5188432993031924
sg4
S'circle_656_img.jpg'
p1856
sba(icapFunc
capDat
p1857
(dp1858
S'b'
F0.10775692756441418
sS'g'
F0.14872467995462649
sS'h'
F0.10800552989406736
sS'l'
F0.17097553070815102
sS's'
F0.36975234340198471
sS'r'
F0.17097553070815102
sg4
S'circle_657_img.jpg'
p1859
sba(icapFunc
capDat
p1860
(dp1861
S'b'
F0.7299941662615459
sS'g'
F0.67368011667476912
sS'h'
F0.59051993598479624
sS'l'
F0.7299941662615459
sS's'
F0.14203712755788614
sS'r'
F0.62630789175174195
sg4
S'circle_658_img.jpg'
p1862
sba(icapFunc
capDat
p1863
(dp1864
S'b'
F0.73612218441095445
sS'g'
F0.67983049748825142
sS'h'
F0.61840883525922907
sS'l'
F0.73612218441095445
sS's'
F0.10763635883335791
sS'r'
F0.6568886728245017
sg4
S'circle_65_img.jpg'
p1865
sba(icapFunc
capDat
p1866
(dp1867
S'b'
F0.67659698590179873
sS'g'
F0.62637173877815588
sS'h'
F0.62068299551128103
sS'l'
F0.67659698590179873
sS's'
F0.10251671744170442
sS'r'
F0.60723448387619516
sg4
S'circle_66_img.jpg'
p1868
sba(icapFunc
capDat
p1869
(dp1870
S'b'
F0.51172224923027065
sS'g'
F0.49682255712202233
sS'h'
F0.55141496562121173
sS'l'
F0.51172224923027065
sS's'
F0.094384829114096472
sS'r'
F0.46342343218279047
sg4
S'circle_67_img.jpg'
p1871
sba(icapFunc
capDat
p1872
(dp1873
S'b'
F0.40901928374655649
sS'g'
F0.55383924809593255
sS'h'
F0.32069239984901454
sS'l'
F0.55383924809593255
sS's'
F0.2614837515529258
sS'r'
F0.42000324096580782
sg4
S'circle_68_img.jpg'
p1874
sba(icapFunc
capDat
p1875
(dp1876
S'b'
F0.42983017339167068
sS'g'
F0.47652633284718843
sS'h'
F0.13049822296129635
sS'l'
F0.48946848160751905
sS's'
F0.12184300002317498
sS'r'
F0.48946848160751905
sg4
S'circle_69_img.jpg'
p1877
sba(icapFunc
capDat
p1878
(dp1879
S'b'
F0.62183795170960943
sS'g'
F0.60367266245341111
sS'h'
F0.59773488177442957
sS'l'
F0.62183795170960943
sS's'
F0.049815472191573271
sS'r'
F0.5908608005185545
sg4
S'circle_6_img.jpg'
p1880
sba(icapFunc
capDat
p1881
(dp1882
S'b'
F0.53508669583535895
sS'g'
F0.45753621779290232
sS'h'
F0.66008547454563216
sS'l'
F0.53508669583535895
sS's'
F0.15088884985554291
sS'r'
F0.45434807972775892
sg4
S'circle_70_img.jpg'
p1883
sba(icapFunc
capDat
p1884
(dp1885
S'b'
F0.59686468967752393
sS'g'
F0.68762307567655168
sS'h'
F0.15466044125736478
sS'l'
F0.69466861124615142
sS's'
F0.14079219930950831
sS'r'
F0.69466861124615142
sg4
S'circle_71_img.jpg'
p1886
sba(icapFunc
capDat
p1887
(dp1888
S'b'
F0.43555760816723382
sS'g'
F0.5463678496191865
sS'h'
F0.092302679249235742
sS'l'
F0.63564252147139844
sS's'
F0.31477584734420211
sS'r'
F0.63564252147139844
sg4
S'circle_72_img.jpg'
p1889
sba(icapFunc
capDat
p1890
(dp1891
S'b'
F0.69040123156700695
sS'g'
F0.63637433155080214
sS'h'
F0.61718376551437126
sS'l'
F0.69040123156700695
sS's'
F0.11129862320225063
sS'r'
F0.61356052503646086
sg4
S'circle_73_img.jpg'
p1892
sba(icapFunc
capDat
p1893
(dp1894
S'b'
F0.76666504618376274
sS'g'
F0.72427839896289092
sS'h'
F0.60918374332336545
sS'l'
F0.76666504618376274
sS's'
F0.084394505283137647
sS'r'
F0.70196272889321021
sg4
S'circle_74_img.jpg'
p1895
sba(icapFunc
capDat
p1896
(dp1897
S'b'
F0.33475222816399286
sS'g'
F0.38425700858855938
sS'h'
F0.13977989838648266
sS'l'
F0.39377929022848812
sS's'
F0.1498988482361405
sS'r'
F0.39377929022848812
sg4
S'circle_75_img.jpg'
p1898
sba(icapFunc
capDat
p1899
(dp1900
S'b'
F0.51536088154269977
sS'g'
F0.46194004213255552
sS'h'
F0.61912350309679187
sS'l'
F0.51536088154269977
sS's'
F0.14502756350674723
sS'r'
F0.44061934856587265
sg4
S'circle_76_img.jpg'
p1901
sba(icapFunc
capDat
p1902
(dp1903
S'b'
F0.68481672338356825
sS'g'
F0.67815459406903256
sS'h'
F0.61914864018919147
sS'l'
F0.68481672338356825
sS's'
F0.013608127204801391
sS'r'
F0.67549765029978937
sg4
S'circle_77_img.jpg'
p1904
sba(icapFunc
capDat
p1905
(dp1906
S'b'
F0.3883338194782045
sS'g'
F0.45300048614487121
sS'h'
F0.15967480689758937
sS'l'
F0.45583211797115541
sS's'
F0.14807710082689288
sS'r'
F0.45583211797115541
sg4
S'circle_78_img.jpg'
p1907
sba(icapFunc
capDat
p1908
(dp1909
S'b'
F0.47765029978933721
sS'g'
F0.5365525846702317
sS'h'
F0.30631441100895201
sS'l'
F0.5365525846702317
sS's'
F0.10977914665548798
sS'r'
F0.48719915734889002
sg4
S'circle_79_img.jpg'
p1910
sba(icapFunc
capDat
p1911
(dp1912
S'b'
F0.56089547885269808
sS'g'
F0.48853702803435423
sS'h'
F0.63138174983434725
sS'l'
F0.56089547885269808
sS's'
F0.16365189123348955
sS'r'
F0.4691038729541403
sg4
S'circle_7_img.jpg'
p1913
sba(icapFunc
capDat
p1914
(dp1915
S'b'
F0.33415135310322475
sS'g'
F0.30289515475611734
sS'h'
F0.61453501214932615
sS'l'
F0.33415135310322475
sS's'
F0.13611419326805196
sS'r'
F0.28866861124615134
sg4
S'circle_80_img.jpg'
p1916
sba(icapFunc
capDat
p1917
(dp1918
S'b'
F0.58129476584022044
sS'g'
F0.61013936152973591
sS'h'
F0.22039700374531868
sS'l'
F0.61013936152973591
sS's'
F0.047275421826902891
sS'r'
F0.60084038243396531
sg4
S'circle_81_img.jpg'
p1919
sba(icapFunc
capDat
p1920
(dp1921
S'b'
F0.52239539782855293
sS'g'
F0.44709479824987847
sS'h'
F0.65082292425357779
sS'l'
F0.52239539782855293
sS's'
F0.15928705568939069
sS'r'
F0.43918457300275482
sg4
S'circle_82_img.jpg'
p1922
sba(icapFunc
capDat
p1923
(dp1924
S'b'
F0.57803532652730516
sS'g'
F0.61817436396046022
sS'h'
F0.20895606746925699
sS'l'
F0.61817436396046022
sS's'
F0.064931578812159274
sS'r'
F0.60798962890941499
sg4
S'circle_83_img.jpg'
p1925
sba(icapFunc
capDat
p1926
(dp1927
S'b'
F0.55007356992383727
sS'g'
F0.41034807972775883
sS'h'
F0.63344098422255202
sS'l'
F0.55007356992383727
sS's'
F0.31725931093320259
sS'r'
F0.37555760816723383
sg4
S'circle_84_img.jpg'
p1928
sba(icapFunc
capDat
p1929
(dp1930
S'b'
F0.29259990277102577
sS'g'
F0.22911683681737158
sS'h'
F0.62634649968135525
sS'l'
F0.29259990277102577
sS's'
F0.28619975033700074
sS'r'
F0.2088578836493275
sg4
S'circle_85_img.jpg'
p1931
sba(icapFunc
capDat
p1932
(dp1933
S'b'
F0.40452179549505751
sS'g'
F0.35205477232215199
sS'h'
F0.7711160665567135
sS'l'
F0.40452179549505751
sS's'
F0.12970135047654452
sS'r'
F0.38493566682871494
sg4
S'circle_86_img.jpg'
p1934
sba(icapFunc
capDat
p1935
(dp1936
S'b'
F0.40322800194457947
sS'g'
F0.39943509965969859
sS'h'
F0.99536429664698778
sS'l'
F0.5358006806028196
sS's'
F0.25450803979886433
sS'r'
F0.5358006806028196
sg4
S'circle_87_img.jpg'
p1937
sba(icapFunc
capDat
p1938
(dp1939
S'b'
F0.5347839896289095
sS'g'
F0.6421711229946524
sS'h'
F0.095635290355279512
sS'l'
F0.72193096742829366
sS's'
F0.25923112630290746
sS'r'
F0.72193096742829366
sg4
S'circle_88_img.jpg'
p1940
sba(icapFunc
capDat
p1941
(dp1942
S'b'
F0.30751450332198998
sS'g'
F0.31565289256198348
sS'h'
F0.34389531269426876
sS'l'
F0.31565289256198348
sS's'
F0.02752716523589066
sS'r'
F0.30696386323124292
sg4
S'circle_89_img.jpg'
p1943
sba(icapFunc
capDat
p1944
(dp1945
S'b'
F0.46276940528277427
sS'g'
F0.42673505104521148
sS'h'
F0.63308818600553496
sS'l'
F0.46276940528277427
sS's'
F0.097512737459511459
sS'r'
F0.41764349376114085
sg4
S'circle_8_img.jpg'
p1946
sba(icapFunc
capDat
p1947
(dp1948
S'b'
F0.48134726948630691
sS'g'
F0.54623270134500079
sS'h'
F0.081317892178366089
sS'l'
F0.61433446767136612
sS's'
F0.21647360710387453
sS'r'
F0.61433446767136612
sg4
S'circle_90_img.jpg'
p1949
sba(icapFunc
capDat
p1950
(dp1951
S'b'
F0.54666569437692425
sS'g'
F0.54403305785123968
sS'h'
F0.52946639097471537
sS'l'
F0.54666569437692425
sS's'
F0.027238982722261891
sS'r'
F0.53177507697293791
sg4
S'circle_91_img.jpg'
p1952
sba(icapFunc
capDat
p1953
(dp1954
S'b'
F0.50499951385512887
sS'g'
F0.44307275968238535
sS'h'
F0.62818010084015574
sS'l'
F0.50499951385512887
sS's'
F0.15944668638202622
sS'r'
F0.42447901474639443
sg4
S'circle_92_img.jpg'
p1955
sba(icapFunc
capDat
p1956
(dp1957
S'b'
F0.62659471722573334
sS'g'
F0.65848225571220231
sS'h'
F0.18719233518652154
sS'l'
F0.65848225571220231
sS's'
F0.048425812859573557
sS'r'
F0.65455517744287806
sg4
S'circle_93_img.jpg'
p1958
sba(icapFunc
capDat
p1959
(dp1960
S'b'
F0.49084978123480799
sS'g'
F0.58986258304974881
sS'h'
F0.15946349977868518
sS'l'
F0.5943351158645277
sS's'
F0.17411950239418139
sS'r'
F0.5943351158645277
sg4
S'circle_94_img.jpg'
p1961
sba(icapFunc
capDat
p1962
(dp1963
S'b'
F0.61073731972127687
sS'g'
F0.4840994976502998
sS'h'
F0.63654385648569434
sS'l'
F0.61073731972127687
sS's'
F0.25309616170406957
sS'r'
F0.45616204829039053
sg4
S'circle_95_img.jpg'
p1964
sba(icapFunc
capDat
p1965
(dp1966
S'b'
F0.70788721438988822
sS'g'
F0.69053962080700049
sS'h'
F0.6020557582968209
sS'l'
F0.70788721438988822
sS's'
F0.040020859029405033
sS'r'
F0.67955695997407228
sg4
S'circle_96_img.jpg'
p1967
sba(icapFunc
capDat
p1968
(dp1969
S'b'
F0.46135115864527626
sS'g'
F0.47322865013774107
sS'h'
F0.012346502531760764
sS'l'
F0.62168659860638464
sS's'
F0.25790396691922796
sS'r'
F0.62168659860638464
sg4
S'circle_97_img.jpg'
p1970
sba(icapFunc
capDat
p1971
(dp1972
S'b'
F0.70526138389240001
sS'g'
F0.69488154269972457
sS'h'
F0.6800407989092524
sS'l'
F0.70526138389240001
sS's'
F0.01471772229380853
sS'r'
F0.69571447091233185
sg4
S'circle_98_img.jpg'
p1973
sba(icapFunc
capDat
p1974
(dp1975
S'b'
F0.71553881056554858
sS'g'
F0.66272597634094954
sS'h'
F0.66117718273750192
sS'l'
F0.71553881056554858
sS's'
F0.076322303474733927
sS'r'
F0.66092724031761463
sg4
S'circle_99_img.jpg'
p1976
sba(icapFunc
capDat
p1977
(dp1978
S'b'
F0.42465759196240477
sS'g'
F0.56445211473018964
sS'h'
F0.14747286185616357
sS'l'
F0.58264657267865827
sS's'
F0.27115748744545987
sS'r'
F0.58264657267865827
sg4
S'circle_9_img.jpg'
p1979
sba.